ARM GAS  C:\Users\l1234\AppData\Local\Temp\ccOAvSgI.s 			page 1


   1              		.cpu cortex-m3
   2              		.arch armv7-m
   3              		.fpu softvfp
   4              		.eabi_attribute 20, 1
   5              		.eabi_attribute 21, 1
   6              		.eabi_attribute 23, 3
   7              		.eabi_attribute 24, 1
   8              		.eabi_attribute 25, 1
   9              		.eabi_attribute 26, 1
  10              		.eabi_attribute 30, 1
  11              		.eabi_attribute 34, 1
  12              		.eabi_attribute 18, 4
  13              		.file	"NRF24.c"
  14              		.text
  15              	.Ltext0:
  16              		.cfi_sections	.debug_frame
  17              		.file 1 "Bsp/Src/NRF24.c"
  18              		.section	.text.csn_high,"ax",%progbits
  19              		.align	1
  20              		.global	csn_high
  21              		.syntax unified
  22              		.thumb
  23              		.thumb_func
  25              	csn_high:
  26              	.LFB68:
   1:Bsp/Src/NRF24.c **** /*
   2:Bsp/Src/NRF24.c ****  * 25-JUL-2024
   3:Bsp/Src/NRF24.c ****  * STM32 HAL NRF24 LIBRARY
   4:Bsp/Src/NRF24.c ****  */
   5:Bsp/Src/NRF24.c **** 
   6:Bsp/Src/NRF24.c **** #include <stdio.h>
   7:Bsp/Src/NRF24.c **** #include "stm32f1xx_hal.h"
   8:Bsp/Src/NRF24.c **** #include "NRF24_conf.h"
   9:Bsp/Src/NRF24.c **** #include "NRF24_reg_addresses.h"
  10:Bsp/Src/NRF24.c **** #include "NRF24.h"
  11:Bsp/Src/NRF24.c **** 
  12:Bsp/Src/NRF24.c **** extern SPI_HandleTypeDef hspiX;
  13:Bsp/Src/NRF24.c **** 
  14:Bsp/Src/NRF24.c **** 
  15:Bsp/Src/NRF24.c **** void csn_high(void){
  27              		.loc 1 15 20 view -0
  28              		.cfi_startproc
  29              		@ args = 0, pretend = 0, frame = 0
  30              		@ frame_needed = 0, uses_anonymous_args = 0
  31 0000 08B5     		push	{r3, lr}
  32              	.LCFI0:
  33              		.cfi_def_cfa_offset 8
  34              		.cfi_offset 3, -8
  35              		.cfi_offset 14, -4
  16:Bsp/Src/NRF24.c **** 	HAL_GPIO_WritePin(csn_gpio_port, csn_gpio_pin, 1);
  36              		.loc 1 16 2 view .LVU1
  37 0002 0122     		movs	r2, #1
  38 0004 4FF48051 		mov	r1, #4096
  39 0008 0148     		ldr	r0, .L3
  40 000a FFF7FEFF 		bl	HAL_GPIO_WritePin
  41              	.LVL0:
  17:Bsp/Src/NRF24.c **** }
ARM GAS  C:\Users\l1234\AppData\Local\Temp\ccOAvSgI.s 			page 2


  42              		.loc 1 17 1 is_stmt 0 view .LVU2
  43 000e 08BD     		pop	{r3, pc}
  44              	.L4:
  45              		.align	2
  46              	.L3:
  47 0010 000C0140 		.word	1073810432
  48              		.cfi_endproc
  49              	.LFE68:
  51              		.section	.text.csn_low,"ax",%progbits
  52              		.align	1
  53              		.global	csn_low
  54              		.syntax unified
  55              		.thumb
  56              		.thumb_func
  58              	csn_low:
  59              	.LFB69:
  18:Bsp/Src/NRF24.c **** 
  19:Bsp/Src/NRF24.c **** void csn_low(void){
  60              		.loc 1 19 19 is_stmt 1 view -0
  61              		.cfi_startproc
  62              		@ args = 0, pretend = 0, frame = 0
  63              		@ frame_needed = 0, uses_anonymous_args = 0
  64 0000 08B5     		push	{r3, lr}
  65              	.LCFI1:
  66              		.cfi_def_cfa_offset 8
  67              		.cfi_offset 3, -8
  68              		.cfi_offset 14, -4
  20:Bsp/Src/NRF24.c **** 	HAL_GPIO_WritePin(csn_gpio_port, csn_gpio_pin, 0);
  69              		.loc 1 20 2 view .LVU4
  70 0002 0022     		movs	r2, #0
  71 0004 4FF48051 		mov	r1, #4096
  72 0008 0148     		ldr	r0, .L7
  73 000a FFF7FEFF 		bl	HAL_GPIO_WritePin
  74              	.LVL1:
  21:Bsp/Src/NRF24.c **** }
  75              		.loc 1 21 1 is_stmt 0 view .LVU5
  76 000e 08BD     		pop	{r3, pc}
  77              	.L8:
  78              		.align	2
  79              	.L7:
  80 0010 000C0140 		.word	1073810432
  81              		.cfi_endproc
  82              	.LFE69:
  84              		.section	.text.ce_high,"ax",%progbits
  85              		.align	1
  86              		.global	ce_high
  87              		.syntax unified
  88              		.thumb
  89              		.thumb_func
  91              	ce_high:
  92              	.LFB70:
  22:Bsp/Src/NRF24.c **** 
  23:Bsp/Src/NRF24.c **** void ce_high(void){
  93              		.loc 1 23 19 is_stmt 1 view -0
  94              		.cfi_startproc
  95              		@ args = 0, pretend = 0, frame = 0
  96              		@ frame_needed = 0, uses_anonymous_args = 0
ARM GAS  C:\Users\l1234\AppData\Local\Temp\ccOAvSgI.s 			page 3


  97 0000 08B5     		push	{r3, lr}
  98              	.LCFI2:
  99              		.cfi_def_cfa_offset 8
 100              		.cfi_offset 3, -8
 101              		.cfi_offset 14, -4
  24:Bsp/Src/NRF24.c **** 	HAL_GPIO_WritePin(ce_gpio_port, ce_gpio_pin, 1);
 102              		.loc 1 24 2 view .LVU7
 103 0002 0122     		movs	r2, #1
 104 0004 4FF40061 		mov	r1, #2048
 105 0008 0148     		ldr	r0, .L11
 106 000a FFF7FEFF 		bl	HAL_GPIO_WritePin
 107              	.LVL2:
  25:Bsp/Src/NRF24.c **** }
 108              		.loc 1 25 1 is_stmt 0 view .LVU8
 109 000e 08BD     		pop	{r3, pc}
 110              	.L12:
 111              		.align	2
 112              	.L11:
 113 0010 00080140 		.word	1073809408
 114              		.cfi_endproc
 115              	.LFE70:
 117              		.section	.text.ce_low,"ax",%progbits
 118              		.align	1
 119              		.global	ce_low
 120              		.syntax unified
 121              		.thumb
 122              		.thumb_func
 124              	ce_low:
 125              	.LFB71:
  26:Bsp/Src/NRF24.c **** 
  27:Bsp/Src/NRF24.c **** void ce_low(void){
 126              		.loc 1 27 18 is_stmt 1 view -0
 127              		.cfi_startproc
 128              		@ args = 0, pretend = 0, frame = 0
 129              		@ frame_needed = 0, uses_anonymous_args = 0
 130 0000 08B5     		push	{r3, lr}
 131              	.LCFI3:
 132              		.cfi_def_cfa_offset 8
 133              		.cfi_offset 3, -8
 134              		.cfi_offset 14, -4
  28:Bsp/Src/NRF24.c **** 	HAL_GPIO_WritePin(ce_gpio_port, ce_gpio_pin, 0);
 135              		.loc 1 28 2 view .LVU10
 136 0002 0022     		movs	r2, #0
 137 0004 4FF40061 		mov	r1, #2048
 138 0008 0148     		ldr	r0, .L15
 139 000a FFF7FEFF 		bl	HAL_GPIO_WritePin
 140              	.LVL3:
  29:Bsp/Src/NRF24.c **** }
 141              		.loc 1 29 1 is_stmt 0 view .LVU11
 142 000e 08BD     		pop	{r3, pc}
 143              	.L16:
 144              		.align	2
 145              	.L15:
 146 0010 00080140 		.word	1073809408
 147              		.cfi_endproc
 148              	.LFE71:
 150              		.section	.text.nrf24_w_reg,"ax",%progbits
ARM GAS  C:\Users\l1234\AppData\Local\Temp\ccOAvSgI.s 			page 4


 151              		.align	1
 152              		.global	nrf24_w_reg
 153              		.syntax unified
 154              		.thumb
 155              		.thumb_func
 157              	nrf24_w_reg:
 158              	.LVL4:
 159              	.LFB72:
  30:Bsp/Src/NRF24.c **** 
  31:Bsp/Src/NRF24.c **** void nrf24_w_reg(uint8_t reg, uint8_t *data, uint8_t size){
 160              		.loc 1 31 59 is_stmt 1 view -0
 161              		.cfi_startproc
 162              		@ args = 0, pretend = 0, frame = 8
 163              		@ frame_needed = 0, uses_anonymous_args = 0
 164              		.loc 1 31 59 is_stmt 0 view .LVU13
 165 0000 70B5     		push	{r4, r5, r6, lr}
 166              	.LCFI4:
 167              		.cfi_def_cfa_offset 16
 168              		.cfi_offset 4, -16
 169              		.cfi_offset 5, -12
 170              		.cfi_offset 6, -8
 171              		.cfi_offset 14, -4
 172 0002 82B0     		sub	sp, sp, #8
 173              	.LCFI5:
 174              		.cfi_def_cfa_offset 24
 175 0004 0C46     		mov	r4, r1
 176 0006 1546     		mov	r5, r2
  32:Bsp/Src/NRF24.c **** 
  33:Bsp/Src/NRF24.c **** 	uint8_t cmd = W_REGISTER | reg;
 177              		.loc 1 33 2 is_stmt 1 view .LVU14
 178              		.loc 1 33 10 is_stmt 0 view .LVU15
 179 0008 40F02000 		orr	r0, r0, #32
 180              	.LVL5:
 181              		.loc 1 33 10 view .LVU16
 182 000c 8DF80700 		strb	r0, [sp, #7]
  34:Bsp/Src/NRF24.c **** 
  35:Bsp/Src/NRF24.c **** 	csn_low();
 183              		.loc 1 35 2 is_stmt 1 view .LVU17
 184 0010 FFF7FEFF 		bl	csn_low
 185              	.LVL6:
  36:Bsp/Src/NRF24.c **** 
  37:Bsp/Src/NRF24.c **** 	HAL_SPI_Transmit(&hspiX, &cmd, 1, spi_w_timeout);
 186              		.loc 1 37 2 view .LVU18
 187 0014 094E     		ldr	r6, .L19
 188 0016 4FF47A73 		mov	r3, #1000
 189 001a 0122     		movs	r2, #1
 190 001c 0DF10701 		add	r1, sp, #7
 191 0020 3046     		mov	r0, r6
 192 0022 FFF7FEFF 		bl	HAL_SPI_Transmit
 193              	.LVL7:
  38:Bsp/Src/NRF24.c **** 	HAL_SPI_Transmit(&hspiX, data, size, spi_w_timeout);
 194              		.loc 1 38 2 view .LVU19
 195 0026 4FF47A73 		mov	r3, #1000
 196 002a 2A46     		mov	r2, r5
 197 002c 2146     		mov	r1, r4
 198 002e 3046     		mov	r0, r6
 199 0030 FFF7FEFF 		bl	HAL_SPI_Transmit
ARM GAS  C:\Users\l1234\AppData\Local\Temp\ccOAvSgI.s 			page 5


 200              	.LVL8:
  39:Bsp/Src/NRF24.c **** 
  40:Bsp/Src/NRF24.c **** 	csn_high();
 201              		.loc 1 40 2 view .LVU20
 202 0034 FFF7FEFF 		bl	csn_high
 203              	.LVL9:
  41:Bsp/Src/NRF24.c **** }
 204              		.loc 1 41 1 is_stmt 0 view .LVU21
 205 0038 02B0     		add	sp, sp, #8
 206              	.LCFI6:
 207              		.cfi_def_cfa_offset 16
 208              		@ sp needed
 209 003a 70BD     		pop	{r4, r5, r6, pc}
 210              	.LVL10:
 211              	.L20:
 212              		.loc 1 41 1 view .LVU22
 213              		.align	2
 214              	.L19:
 215 003c 00000000 		.word	hspi2
 216              		.cfi_endproc
 217              	.LFE72:
 219              		.section	.text.nrf24_r_reg,"ax",%progbits
 220              		.align	1
 221              		.global	nrf24_r_reg
 222              		.syntax unified
 223              		.thumb
 224              		.thumb_func
 226              	nrf24_r_reg:
 227              	.LVL11:
 228              	.LFB73:
  42:Bsp/Src/NRF24.c **** 
  43:Bsp/Src/NRF24.c **** uint8_t nrf24_r_reg(uint8_t reg, uint8_t size){
 229              		.loc 1 43 47 is_stmt 1 view -0
 230              		.cfi_startproc
 231              		@ args = 0, pretend = 0, frame = 8
 232              		@ frame_needed = 0, uses_anonymous_args = 0
 233              		.loc 1 43 47 is_stmt 0 view .LVU24
 234 0000 30B5     		push	{r4, r5, lr}
 235              	.LCFI7:
 236              		.cfi_def_cfa_offset 12
 237              		.cfi_offset 4, -12
 238              		.cfi_offset 5, -8
 239              		.cfi_offset 14, -4
 240 0002 83B0     		sub	sp, sp, #12
 241              	.LCFI8:
 242              		.cfi_def_cfa_offset 24
 243 0004 0C46     		mov	r4, r1
  44:Bsp/Src/NRF24.c **** 	uint8_t cmd = R_REGISTER | reg;
 244              		.loc 1 44 2 is_stmt 1 view .LVU25
 245              		.loc 1 44 10 is_stmt 0 view .LVU26
 246 0006 8DF80700 		strb	r0, [sp, #7]
  45:Bsp/Src/NRF24.c **** 	uint8_t data = 0;
 247              		.loc 1 45 2 is_stmt 1 view .LVU27
 248              		.loc 1 45 10 is_stmt 0 view .LVU28
 249 000a 0023     		movs	r3, #0
 250 000c 8DF80630 		strb	r3, [sp, #6]
  46:Bsp/Src/NRF24.c **** 
ARM GAS  C:\Users\l1234\AppData\Local\Temp\ccOAvSgI.s 			page 6


  47:Bsp/Src/NRF24.c **** 	csn_low();
 251              		.loc 1 47 2 is_stmt 1 view .LVU29
 252 0010 FFF7FEFF 		bl	csn_low
 253              	.LVL12:
  48:Bsp/Src/NRF24.c **** 
  49:Bsp/Src/NRF24.c **** 	HAL_SPI_Transmit(&hspiX, &cmd, 1, spi_w_timeout);
 254              		.loc 1 49 2 view .LVU30
 255 0014 0B4D     		ldr	r5, .L23
 256 0016 4FF47A73 		mov	r3, #1000
 257 001a 0122     		movs	r2, #1
 258 001c 0DF10701 		add	r1, sp, #7
 259 0020 2846     		mov	r0, r5
 260 0022 FFF7FEFF 		bl	HAL_SPI_Transmit
 261              	.LVL13:
  50:Bsp/Src/NRF24.c **** 	HAL_SPI_Receive(&hspiX, &data, size, spi_r_timeout);
 262              		.loc 1 50 2 view .LVU31
 263 0026 4FF47A73 		mov	r3, #1000
 264 002a 2246     		mov	r2, r4
 265 002c 0DF10601 		add	r1, sp, #6
 266 0030 2846     		mov	r0, r5
 267 0032 FFF7FEFF 		bl	HAL_SPI_Receive
 268              	.LVL14:
  51:Bsp/Src/NRF24.c **** 
  52:Bsp/Src/NRF24.c **** 	csn_high();
 269              		.loc 1 52 2 view .LVU32
 270 0036 FFF7FEFF 		bl	csn_high
 271              	.LVL15:
  53:Bsp/Src/NRF24.c **** 
  54:Bsp/Src/NRF24.c **** 	return data;
 272              		.loc 1 54 2 view .LVU33
  55:Bsp/Src/NRF24.c **** }
 273              		.loc 1 55 1 is_stmt 0 view .LVU34
 274 003a 9DF80600 		ldrb	r0, [sp, #6]	@ zero_extendqisi2
 275 003e 03B0     		add	sp, sp, #12
 276              	.LCFI9:
 277              		.cfi_def_cfa_offset 12
 278              		@ sp needed
 279 0040 30BD     		pop	{r4, r5, pc}
 280              	.L24:
 281 0042 00BF     		.align	2
 282              	.L23:
 283 0044 00000000 		.word	hspi2
 284              		.cfi_endproc
 285              	.LFE73:
 287              		.section	.text.nrf24_w_spec_cmd,"ax",%progbits
 288              		.align	1
 289              		.global	nrf24_w_spec_cmd
 290              		.syntax unified
 291              		.thumb
 292              		.thumb_func
 294              	nrf24_w_spec_cmd:
 295              	.LVL16:
 296              	.LFB74:
  56:Bsp/Src/NRF24.c **** 
  57:Bsp/Src/NRF24.c **** void nrf24_w_spec_cmd(uint8_t cmd){
 297              		.loc 1 57 35 is_stmt 1 view -0
 298              		.cfi_startproc
ARM GAS  C:\Users\l1234\AppData\Local\Temp\ccOAvSgI.s 			page 7


 299              		@ args = 0, pretend = 0, frame = 8
 300              		@ frame_needed = 0, uses_anonymous_args = 0
 301              		.loc 1 57 35 is_stmt 0 view .LVU36
 302 0000 00B5     		push	{lr}
 303              	.LCFI10:
 304              		.cfi_def_cfa_offset 4
 305              		.cfi_offset 14, -4
 306 0002 83B0     		sub	sp, sp, #12
 307              	.LCFI11:
 308              		.cfi_def_cfa_offset 16
 309 0004 8DF80700 		strb	r0, [sp, #7]
  58:Bsp/Src/NRF24.c **** 	HAL_SPI_Transmit(&hspiX, &cmd, 1, spi_w_timeout);
 310              		.loc 1 58 2 is_stmt 1 view .LVU37
 311 0008 4FF47A73 		mov	r3, #1000
 312 000c 0122     		movs	r2, #1
 313 000e 0DF10701 		add	r1, sp, #7
 314 0012 0348     		ldr	r0, .L27
 315              	.LVL17:
 316              		.loc 1 58 2 is_stmt 0 view .LVU38
 317 0014 FFF7FEFF 		bl	HAL_SPI_Transmit
 318              	.LVL18:
  59:Bsp/Src/NRF24.c **** }
 319              		.loc 1 59 1 view .LVU39
 320 0018 03B0     		add	sp, sp, #12
 321              	.LCFI12:
 322              		.cfi_def_cfa_offset 4
 323              		@ sp needed
 324 001a 5DF804FB 		ldr	pc, [sp], #4
 325              	.L28:
 326 001e 00BF     		.align	2
 327              	.L27:
 328 0020 00000000 		.word	hspi2
 329              		.cfi_endproc
 330              	.LFE74:
 332              		.section	.text.nrf24_w_spec_reg,"ax",%progbits
 333              		.align	1
 334              		.global	nrf24_w_spec_reg
 335              		.syntax unified
 336              		.thumb
 337              		.thumb_func
 339              	nrf24_w_spec_reg:
 340              	.LVL19:
 341              	.LFB75:
  60:Bsp/Src/NRF24.c **** 
  61:Bsp/Src/NRF24.c **** void nrf24_w_spec_reg(uint8_t *data, uint8_t size){
 342              		.loc 1 61 51 is_stmt 1 view -0
 343              		.cfi_startproc
 344              		@ args = 0, pretend = 0, frame = 0
 345              		@ frame_needed = 0, uses_anonymous_args = 0
 346              		.loc 1 61 51 is_stmt 0 view .LVU41
 347 0000 08B5     		push	{r3, lr}
 348              	.LCFI13:
 349              		.cfi_def_cfa_offset 8
 350              		.cfi_offset 3, -8
 351              		.cfi_offset 14, -4
 352 0002 0A46     		mov	r2, r1
  62:Bsp/Src/NRF24.c **** 	HAL_SPI_Transmit(&hspiX, data, size, spi_w_timeout);
ARM GAS  C:\Users\l1234\AppData\Local\Temp\ccOAvSgI.s 			page 8


 353              		.loc 1 62 2 is_stmt 1 view .LVU42
 354 0004 4FF47A73 		mov	r3, #1000
 355 0008 0146     		mov	r1, r0
 356              	.LVL20:
 357              		.loc 1 62 2 is_stmt 0 view .LVU43
 358 000a 0248     		ldr	r0, .L31
 359              	.LVL21:
 360              		.loc 1 62 2 view .LVU44
 361 000c FFF7FEFF 		bl	HAL_SPI_Transmit
 362              	.LVL22:
  63:Bsp/Src/NRF24.c **** }
 363              		.loc 1 63 1 view .LVU45
 364 0010 08BD     		pop	{r3, pc}
 365              	.L32:
 366 0012 00BF     		.align	2
 367              	.L31:
 368 0014 00000000 		.word	hspi2
 369              		.cfi_endproc
 370              	.LFE75:
 372              		.section	.text.nrf24_r_spec_reg,"ax",%progbits
 373              		.align	1
 374              		.global	nrf24_r_spec_reg
 375              		.syntax unified
 376              		.thumb
 377              		.thumb_func
 379              	nrf24_r_spec_reg:
 380              	.LVL23:
 381              	.LFB76:
  64:Bsp/Src/NRF24.c **** 
  65:Bsp/Src/NRF24.c **** void nrf24_r_spec_reg(uint8_t *data, uint8_t size){
 382              		.loc 1 65 51 is_stmt 1 view -0
 383              		.cfi_startproc
 384              		@ args = 0, pretend = 0, frame = 0
 385              		@ frame_needed = 0, uses_anonymous_args = 0
 386              		.loc 1 65 51 is_stmt 0 view .LVU47
 387 0000 08B5     		push	{r3, lr}
 388              	.LCFI14:
 389              		.cfi_def_cfa_offset 8
 390              		.cfi_offset 3, -8
 391              		.cfi_offset 14, -4
 392 0002 0A46     		mov	r2, r1
  66:Bsp/Src/NRF24.c **** 	HAL_SPI_Receive(&hspiX, data, size, spi_r_timeout);
 393              		.loc 1 66 2 is_stmt 1 view .LVU48
 394 0004 4FF47A73 		mov	r3, #1000
 395 0008 0146     		mov	r1, r0
 396              	.LVL24:
 397              		.loc 1 66 2 is_stmt 0 view .LVU49
 398 000a 0248     		ldr	r0, .L35
 399              	.LVL25:
 400              		.loc 1 66 2 view .LVU50
 401 000c FFF7FEFF 		bl	HAL_SPI_Receive
 402              	.LVL26:
  67:Bsp/Src/NRF24.c **** }
 403              		.loc 1 67 1 view .LVU51
 404 0010 08BD     		pop	{r3, pc}
 405              	.L36:
 406 0012 00BF     		.align	2
ARM GAS  C:\Users\l1234\AppData\Local\Temp\ccOAvSgI.s 			page 9


 407              	.L35:
 408 0014 00000000 		.word	hspi2
 409              		.cfi_endproc
 410              	.LFE76:
 412              		.section	.text.nrf24_pwr_up,"ax",%progbits
 413              		.align	1
 414              		.global	nrf24_pwr_up
 415              		.syntax unified
 416              		.thumb
 417              		.thumb_func
 419              	nrf24_pwr_up:
 420              	.LFB77:
  68:Bsp/Src/NRF24.c **** 
  69:Bsp/Src/NRF24.c **** void nrf24_pwr_up(void){
 421              		.loc 1 69 24 is_stmt 1 view -0
 422              		.cfi_startproc
 423              		@ args = 0, pretend = 0, frame = 8
 424              		@ frame_needed = 0, uses_anonymous_args = 0
 425 0000 10B5     		push	{r4, lr}
 426              	.LCFI15:
 427              		.cfi_def_cfa_offset 8
 428              		.cfi_offset 4, -8
 429              		.cfi_offset 14, -4
 430 0002 82B0     		sub	sp, sp, #8
 431              	.LCFI16:
 432              		.cfi_def_cfa_offset 16
  70:Bsp/Src/NRF24.c **** 	uint8_t data = 0;
 433              		.loc 1 70 2 view .LVU53
 434              		.loc 1 70 10 is_stmt 0 view .LVU54
 435 0004 0024     		movs	r4, #0
 436 0006 8DF80740 		strb	r4, [sp, #7]
  71:Bsp/Src/NRF24.c **** 
  72:Bsp/Src/NRF24.c **** 	data = nrf24_r_reg(CONFIG, 1);
 437              		.loc 1 72 2 is_stmt 1 view .LVU55
 438              		.loc 1 72 9 is_stmt 0 view .LVU56
 439 000a 0121     		movs	r1, #1
 440 000c 2046     		mov	r0, r4
 441 000e FFF7FEFF 		bl	nrf24_r_reg
 442              	.LVL27:
 443              		.loc 1 72 7 view .LVU57
 444 0012 8DF80700 		strb	r0, [sp, #7]
  73:Bsp/Src/NRF24.c **** 
  74:Bsp/Src/NRF24.c **** 	data |= (1 << PWR_UP);
 445              		.loc 1 74 2 is_stmt 1 view .LVU58
 446              		.loc 1 74 7 is_stmt 0 view .LVU59
 447 0016 40F00200 		orr	r0, r0, #2
 448 001a 8DF80700 		strb	r0, [sp, #7]
  75:Bsp/Src/NRF24.c **** 
  76:Bsp/Src/NRF24.c **** 	nrf24_w_reg(CONFIG, &data, 1);
 449              		.loc 1 76 2 is_stmt 1 view .LVU60
 450 001e 0122     		movs	r2, #1
 451 0020 0DF10701 		add	r1, sp, #7
 452 0024 2046     		mov	r0, r4
 453 0026 FFF7FEFF 		bl	nrf24_w_reg
 454              	.LVL28:
  77:Bsp/Src/NRF24.c **** }
 455              		.loc 1 77 1 is_stmt 0 view .LVU61
ARM GAS  C:\Users\l1234\AppData\Local\Temp\ccOAvSgI.s 			page 10


 456 002a 02B0     		add	sp, sp, #8
 457              	.LCFI17:
 458              		.cfi_def_cfa_offset 8
 459              		@ sp needed
 460 002c 10BD     		pop	{r4, pc}
 461              		.cfi_endproc
 462              	.LFE77:
 464              		.section	.text.nrf24_pwr_dwn,"ax",%progbits
 465              		.align	1
 466              		.global	nrf24_pwr_dwn
 467              		.syntax unified
 468              		.thumb
 469              		.thumb_func
 471              	nrf24_pwr_dwn:
 472              	.LFB78:
  78:Bsp/Src/NRF24.c **** 
  79:Bsp/Src/NRF24.c **** void nrf24_pwr_dwn(void){
 473              		.loc 1 79 25 is_stmt 1 view -0
 474              		.cfi_startproc
 475              		@ args = 0, pretend = 0, frame = 8
 476              		@ frame_needed = 0, uses_anonymous_args = 0
 477 0000 10B5     		push	{r4, lr}
 478              	.LCFI18:
 479              		.cfi_def_cfa_offset 8
 480              		.cfi_offset 4, -8
 481              		.cfi_offset 14, -4
 482 0002 82B0     		sub	sp, sp, #8
 483              	.LCFI19:
 484              		.cfi_def_cfa_offset 16
  80:Bsp/Src/NRF24.c **** 	uint8_t data = 0;
 485              		.loc 1 80 2 view .LVU63
 486              		.loc 1 80 10 is_stmt 0 view .LVU64
 487 0004 0024     		movs	r4, #0
 488 0006 8DF80740 		strb	r4, [sp, #7]
  81:Bsp/Src/NRF24.c **** 
  82:Bsp/Src/NRF24.c **** 	data = nrf24_r_reg(CONFIG, 1);
 489              		.loc 1 82 2 is_stmt 1 view .LVU65
 490              		.loc 1 82 9 is_stmt 0 view .LVU66
 491 000a 0121     		movs	r1, #1
 492 000c 2046     		mov	r0, r4
 493 000e FFF7FEFF 		bl	nrf24_r_reg
 494              	.LVL29:
 495              		.loc 1 82 7 view .LVU67
 496 0012 8DF80700 		strb	r0, [sp, #7]
  83:Bsp/Src/NRF24.c **** 
  84:Bsp/Src/NRF24.c **** 	data &= ~(1 << PWR_UP);
 497              		.loc 1 84 2 is_stmt 1 view .LVU68
 498              		.loc 1 84 7 is_stmt 0 view .LVU69
 499 0016 20F00200 		bic	r0, r0, #2
 500 001a 8DF80700 		strb	r0, [sp, #7]
  85:Bsp/Src/NRF24.c **** 
  86:Bsp/Src/NRF24.c **** 	nrf24_w_reg(CONFIG, &data, 1);
 501              		.loc 1 86 2 is_stmt 1 view .LVU70
 502 001e 0122     		movs	r2, #1
 503 0020 0DF10701 		add	r1, sp, #7
 504 0024 2046     		mov	r0, r4
 505 0026 FFF7FEFF 		bl	nrf24_w_reg
ARM GAS  C:\Users\l1234\AppData\Local\Temp\ccOAvSgI.s 			page 11


 506              	.LVL30:
  87:Bsp/Src/NRF24.c **** }
 507              		.loc 1 87 1 is_stmt 0 view .LVU71
 508 002a 02B0     		add	sp, sp, #8
 509              	.LCFI20:
 510              		.cfi_def_cfa_offset 8
 511              		@ sp needed
 512 002c 10BD     		pop	{r4, pc}
 513              		.cfi_endproc
 514              	.LFE78:
 516              		.section	.text.nrf24_tx_pwr,"ax",%progbits
 517              		.align	1
 518              		.global	nrf24_tx_pwr
 519              		.syntax unified
 520              		.thumb
 521              		.thumb_func
 523              	nrf24_tx_pwr:
 524              	.LVL31:
 525              	.LFB79:
  88:Bsp/Src/NRF24.c **** 
  89:Bsp/Src/NRF24.c **** void nrf24_tx_pwr(uint8_t pwr){
 526              		.loc 1 89 31 is_stmt 1 view -0
 527              		.cfi_startproc
 528              		@ args = 0, pretend = 0, frame = 8
 529              		@ frame_needed = 0, uses_anonymous_args = 0
 530              		.loc 1 89 31 is_stmt 0 view .LVU73
 531 0000 10B5     		push	{r4, lr}
 532              	.LCFI21:
 533              		.cfi_def_cfa_offset 8
 534              		.cfi_offset 4, -8
 535              		.cfi_offset 14, -4
 536 0002 82B0     		sub	sp, sp, #8
 537              	.LCFI22:
 538              		.cfi_def_cfa_offset 16
 539 0004 0446     		mov	r4, r0
  90:Bsp/Src/NRF24.c **** 	uint8_t data = 0;
 540              		.loc 1 90 2 is_stmt 1 view .LVU74
 541              		.loc 1 90 10 is_stmt 0 view .LVU75
 542 0006 0023     		movs	r3, #0
 543 0008 8DF80730 		strb	r3, [sp, #7]
  91:Bsp/Src/NRF24.c **** 
  92:Bsp/Src/NRF24.c **** 	data = nrf24_r_reg(RF_SETUP, 1);
 544              		.loc 1 92 2 is_stmt 1 view .LVU76
 545              		.loc 1 92 9 is_stmt 0 view .LVU77
 546 000c 0121     		movs	r1, #1
 547 000e 0620     		movs	r0, #6
 548              	.LVL32:
 549              		.loc 1 92 9 view .LVU78
 550 0010 FFF7FEFF 		bl	nrf24_r_reg
 551              	.LVL33:
 552              		.loc 1 92 7 view .LVU79
 553 0014 8DF80700 		strb	r0, [sp, #7]
  93:Bsp/Src/NRF24.c **** 
  94:Bsp/Src/NRF24.c **** 	data &= 184;
 554              		.loc 1 94 2 is_stmt 1 view .LVU80
 555              		.loc 1 94 7 is_stmt 0 view .LVU81
 556 0018 00F0B803 		and	r3, r0, #184
ARM GAS  C:\Users\l1234\AppData\Local\Temp\ccOAvSgI.s 			page 12


 557 001c 8DF80730 		strb	r3, [sp, #7]
  95:Bsp/Src/NRF24.c **** 
  96:Bsp/Src/NRF24.c **** 	data |= (pwr << RF_PWR);
 558              		.loc 1 96 2 is_stmt 1 view .LVU82
 559              		.loc 1 96 7 is_stmt 0 view .LVU83
 560 0020 43EA4403 		orr	r3, r3, r4, lsl #1
 561 0024 8DF80730 		strb	r3, [sp, #7]
  97:Bsp/Src/NRF24.c **** 
  98:Bsp/Src/NRF24.c **** 	nrf24_w_reg(RF_SETUP, &data, 1);
 562              		.loc 1 98 2 is_stmt 1 view .LVU84
 563 0028 0122     		movs	r2, #1
 564 002a 0DF10701 		add	r1, sp, #7
 565 002e 0620     		movs	r0, #6
 566 0030 FFF7FEFF 		bl	nrf24_w_reg
 567              	.LVL34:
  99:Bsp/Src/NRF24.c **** }
 568              		.loc 1 99 1 is_stmt 0 view .LVU85
 569 0034 02B0     		add	sp, sp, #8
 570              	.LCFI23:
 571              		.cfi_def_cfa_offset 8
 572              		@ sp needed
 573 0036 10BD     		pop	{r4, pc}
 574              		.cfi_endproc
 575              	.LFE79:
 577              		.section	.text.nrf24_data_rate,"ax",%progbits
 578              		.align	1
 579              		.global	nrf24_data_rate
 580              		.syntax unified
 581              		.thumb
 582              		.thumb_func
 584              	nrf24_data_rate:
 585              	.LVL35:
 586              	.LFB80:
 100:Bsp/Src/NRF24.c **** 
 101:Bsp/Src/NRF24.c **** void nrf24_data_rate(uint8_t bps){
 587              		.loc 1 101 34 is_stmt 1 view -0
 588              		.cfi_startproc
 589              		@ args = 0, pretend = 0, frame = 8
 590              		@ frame_needed = 0, uses_anonymous_args = 0
 591              		.loc 1 101 34 is_stmt 0 view .LVU87
 592 0000 10B5     		push	{r4, lr}
 593              	.LCFI24:
 594              		.cfi_def_cfa_offset 8
 595              		.cfi_offset 4, -8
 596              		.cfi_offset 14, -4
 597 0002 82B0     		sub	sp, sp, #8
 598              	.LCFI25:
 599              		.cfi_def_cfa_offset 16
 600 0004 0446     		mov	r4, r0
 102:Bsp/Src/NRF24.c **** 	uint8_t data = 0;
 601              		.loc 1 102 2 is_stmt 1 view .LVU88
 602              		.loc 1 102 10 is_stmt 0 view .LVU89
 603 0006 0023     		movs	r3, #0
 604 0008 8DF80730 		strb	r3, [sp, #7]
 103:Bsp/Src/NRF24.c **** 
 104:Bsp/Src/NRF24.c **** 	data = nrf24_r_reg(RF_SETUP, 1);
 605              		.loc 1 104 2 is_stmt 1 view .LVU90
ARM GAS  C:\Users\l1234\AppData\Local\Temp\ccOAvSgI.s 			page 13


 606              		.loc 1 104 9 is_stmt 0 view .LVU91
 607 000c 0121     		movs	r1, #1
 608 000e 0620     		movs	r0, #6
 609              	.LVL36:
 610              		.loc 1 104 9 view .LVU92
 611 0010 FFF7FEFF 		bl	nrf24_r_reg
 612              	.LVL37:
 613              		.loc 1 104 7 view .LVU93
 614 0014 8DF80700 		strb	r0, [sp, #7]
 105:Bsp/Src/NRF24.c **** 
 106:Bsp/Src/NRF24.c **** 	data &= ~(1 << RF_DR_LOW) & ~(1 << RF_DR_HIGH);
 615              		.loc 1 106 2 is_stmt 1 view .LVU94
 616              		.loc 1 106 7 is_stmt 0 view .LVU95
 617 0018 00F0D703 		and	r3, r0, #215
 618 001c 8DF80730 		strb	r3, [sp, #7]
 107:Bsp/Src/NRF24.c **** 
 108:Bsp/Src/NRF24.c **** 	if(bps == _2mbps){
 619              		.loc 1 108 2 is_stmt 1 view .LVU96
 620              		.loc 1 108 4 is_stmt 0 view .LVU97
 621 0020 012C     		cmp	r4, #1
 622 0022 09D0     		beq	.L47
 109:Bsp/Src/NRF24.c **** 		data |= (1 << RF_DR_HIGH);
 110:Bsp/Src/NRF24.c **** 	}else if(bps == _250kbps){
 623              		.loc 1 110 8 is_stmt 1 view .LVU98
 624              		.loc 1 110 10 is_stmt 0 view .LVU99
 625 0024 022C     		cmp	r4, #2
 626 0026 0CD0     		beq	.L48
 627              	.L45:
 111:Bsp/Src/NRF24.c **** 		data |= (1 << RF_DR_LOW);
 112:Bsp/Src/NRF24.c **** 	}
 113:Bsp/Src/NRF24.c **** 
 114:Bsp/Src/NRF24.c **** 	nrf24_w_reg(RF_SETUP, &data, 1);
 628              		.loc 1 114 2 is_stmt 1 view .LVU100
 629 0028 0122     		movs	r2, #1
 630 002a 0DF10701 		add	r1, sp, #7
 631 002e 0620     		movs	r0, #6
 632 0030 FFF7FEFF 		bl	nrf24_w_reg
 633              	.LVL38:
 115:Bsp/Src/NRF24.c **** }
 634              		.loc 1 115 1 is_stmt 0 view .LVU101
 635 0034 02B0     		add	sp, sp, #8
 636              	.LCFI26:
 637              		.cfi_remember_state
 638              		.cfi_def_cfa_offset 8
 639              		@ sp needed
 640 0036 10BD     		pop	{r4, pc}
 641              	.L47:
 642              	.LCFI27:
 643              		.cfi_restore_state
 109:Bsp/Src/NRF24.c **** 		data |= (1 << RF_DR_HIGH);
 644              		.loc 1 109 3 is_stmt 1 view .LVU102
 109:Bsp/Src/NRF24.c **** 		data |= (1 << RF_DR_HIGH);
 645              		.loc 1 109 8 is_stmt 0 view .LVU103
 646 0038 43F00800 		orr	r0, r3, #8
 647 003c 8DF80700 		strb	r0, [sp, #7]
 648 0040 F2E7     		b	.L45
 649              	.L48:
ARM GAS  C:\Users\l1234\AppData\Local\Temp\ccOAvSgI.s 			page 14


 111:Bsp/Src/NRF24.c **** 		data |= (1 << RF_DR_LOW);
 650              		.loc 1 111 3 is_stmt 1 view .LVU104
 111:Bsp/Src/NRF24.c **** 		data |= (1 << RF_DR_LOW);
 651              		.loc 1 111 8 is_stmt 0 view .LVU105
 652 0042 43F02000 		orr	r0, r3, #32
 653 0046 8DF80700 		strb	r0, [sp, #7]
 654 004a EDE7     		b	.L45
 655              		.cfi_endproc
 656              	.LFE80:
 658              		.section	.text.nrf24_set_channel,"ax",%progbits
 659              		.align	1
 660              		.global	nrf24_set_channel
 661              		.syntax unified
 662              		.thumb
 663              		.thumb_func
 665              	nrf24_set_channel:
 666              	.LVL39:
 667              	.LFB81:
 116:Bsp/Src/NRF24.c **** 
 117:Bsp/Src/NRF24.c **** void nrf24_set_channel(uint8_t ch){
 668              		.loc 1 117 35 is_stmt 1 view -0
 669              		.cfi_startproc
 670              		@ args = 0, pretend = 0, frame = 8
 671              		@ frame_needed = 0, uses_anonymous_args = 0
 672              		.loc 1 117 35 is_stmt 0 view .LVU107
 673 0000 00B5     		push	{lr}
 674              	.LCFI28:
 675              		.cfi_def_cfa_offset 4
 676              		.cfi_offset 14, -4
 677 0002 83B0     		sub	sp, sp, #12
 678              	.LCFI29:
 679              		.cfi_def_cfa_offset 16
 680 0004 8DF80700 		strb	r0, [sp, #7]
 118:Bsp/Src/NRF24.c **** 	nrf24_w_reg(RF_CH, &ch, 1);
 681              		.loc 1 118 2 is_stmt 1 view .LVU108
 682 0008 0122     		movs	r2, #1
 683 000a 0DF10701 		add	r1, sp, #7
 684 000e 0520     		movs	r0, #5
 685              	.LVL40:
 686              		.loc 1 118 2 is_stmt 0 view .LVU109
 687 0010 FFF7FEFF 		bl	nrf24_w_reg
 688              	.LVL41:
 119:Bsp/Src/NRF24.c **** }
 689              		.loc 1 119 1 view .LVU110
 690 0014 03B0     		add	sp, sp, #12
 691              	.LCFI30:
 692              		.cfi_def_cfa_offset 4
 693              		@ sp needed
 694 0016 5DF804FB 		ldr	pc, [sp], #4
 695              		.cfi_endproc
 696              	.LFE81:
 698              		.section	.text.nrf24_open_tx_pipe,"ax",%progbits
 699              		.align	1
 700              		.global	nrf24_open_tx_pipe
 701              		.syntax unified
 702              		.thumb
 703              		.thumb_func
ARM GAS  C:\Users\l1234\AppData\Local\Temp\ccOAvSgI.s 			page 15


 705              	nrf24_open_tx_pipe:
 706              	.LVL42:
 707              	.LFB82:
 120:Bsp/Src/NRF24.c **** 
 121:Bsp/Src/NRF24.c **** void nrf24_open_tx_pipe(uint8_t *addr){
 708              		.loc 1 121 39 is_stmt 1 view -0
 709              		.cfi_startproc
 710              		@ args = 0, pretend = 0, frame = 0
 711              		@ frame_needed = 0, uses_anonymous_args = 0
 712              		.loc 1 121 39 is_stmt 0 view .LVU112
 713 0000 08B5     		push	{r3, lr}
 714              	.LCFI31:
 715              		.cfi_def_cfa_offset 8
 716              		.cfi_offset 3, -8
 717              		.cfi_offset 14, -4
 718 0002 0146     		mov	r1, r0
 122:Bsp/Src/NRF24.c **** 	nrf24_w_reg(TX_ADDR, addr, 5);
 719              		.loc 1 122 2 is_stmt 1 view .LVU113
 720 0004 0522     		movs	r2, #5
 721 0006 1020     		movs	r0, #16
 722              	.LVL43:
 723              		.loc 1 122 2 is_stmt 0 view .LVU114
 724 0008 FFF7FEFF 		bl	nrf24_w_reg
 725              	.LVL44:
 123:Bsp/Src/NRF24.c **** }
 726              		.loc 1 123 1 view .LVU115
 727 000c 08BD     		pop	{r3, pc}
 728              		.cfi_endproc
 729              	.LFE82:
 731              		.section	.text.nrf24_pipe_pld_size,"ax",%progbits
 732              		.align	1
 733              		.global	nrf24_pipe_pld_size
 734              		.syntax unified
 735              		.thumb
 736              		.thumb_func
 738              	nrf24_pipe_pld_size:
 739              	.LVL45:
 740              	.LFB83:
 124:Bsp/Src/NRF24.c **** 
 125:Bsp/Src/NRF24.c **** void nrf24_pipe_pld_size(uint8_t pipe, uint8_t size){
 741              		.loc 1 125 53 is_stmt 1 view -0
 742              		.cfi_startproc
 743              		@ args = 0, pretend = 0, frame = 8
 744              		@ frame_needed = 0, uses_anonymous_args = 0
 745              		.loc 1 125 53 is_stmt 0 view .LVU117
 746 0000 00B5     		push	{lr}
 747              	.LCFI32:
 748              		.cfi_def_cfa_offset 4
 749              		.cfi_offset 14, -4
 750 0002 83B0     		sub	sp, sp, #12
 751              	.LCFI33:
 752              		.cfi_def_cfa_offset 16
 753 0004 8DF80710 		strb	r1, [sp, #7]
 126:Bsp/Src/NRF24.c **** 	if(size > 32){
 754              		.loc 1 126 2 is_stmt 1 view .LVU118
 755              		.loc 1 126 10 is_stmt 0 view .LVU119
 756 0008 CBB2     		uxtb	r3, r1
ARM GAS  C:\Users\l1234\AppData\Local\Temp\ccOAvSgI.s 			page 16


 757              		.loc 1 126 4 view .LVU120
 758 000a 202B     		cmp	r3, #32
 759 000c 02D9     		bls	.L54
 127:Bsp/Src/NRF24.c **** 		size = 32;
 760              		.loc 1 127 3 is_stmt 1 view .LVU121
 761              		.loc 1 127 8 is_stmt 0 view .LVU122
 762 000e 2023     		movs	r3, #32
 763 0010 8DF80730 		strb	r3, [sp, #7]
 764              	.L54:
 128:Bsp/Src/NRF24.c **** 	}
 129:Bsp/Src/NRF24.c **** 
 130:Bsp/Src/NRF24.c **** 	switch(pipe){
 765              		.loc 1 130 2 is_stmt 1 view .LVU123
 766 0014 0528     		cmp	r0, #5
 767 0016 0AD8     		bhi	.L53
 768 0018 DFE800F0 		tbb	[pc, r0]
 769              	.L57:
 770 001c 03       		.byte	(.L62-.L57)/2
 771 001d 0C       		.byte	(.L61-.L57)/2
 772 001e 13       		.byte	(.L60-.L57)/2
 773 001f 1A       		.byte	(.L59-.L57)/2
 774 0020 21       		.byte	(.L58-.L57)/2
 775 0021 28       		.byte	(.L56-.L57)/2
 776              		.p2align 1
 777              	.L62:
 131:Bsp/Src/NRF24.c **** 	case 0:
 132:Bsp/Src/NRF24.c **** 		nrf24_w_reg(RX_PW_P0, &size, 1);
 778              		.loc 1 132 3 view .LVU124
 779 0022 0122     		movs	r2, #1
 780 0024 0DF10701 		add	r1, sp, #7
 781              	.LVL46:
 782              		.loc 1 132 3 is_stmt 0 view .LVU125
 783 0028 1120     		movs	r0, #17
 784              	.LVL47:
 785              		.loc 1 132 3 view .LVU126
 786 002a FFF7FEFF 		bl	nrf24_w_reg
 787              	.LVL48:
 133:Bsp/Src/NRF24.c **** 
 134:Bsp/Src/NRF24.c **** 		break;
 788              		.loc 1 134 3 is_stmt 1 view .LVU127
 789              	.L53:
 135:Bsp/Src/NRF24.c **** 	case 1:
 136:Bsp/Src/NRF24.c **** 		nrf24_w_reg(RX_PW_P1, &size, 1);
 137:Bsp/Src/NRF24.c **** 
 138:Bsp/Src/NRF24.c **** 		break;
 139:Bsp/Src/NRF24.c **** 	case 2:
 140:Bsp/Src/NRF24.c **** 		nrf24_w_reg(RX_PW_P2, &size, 1);
 141:Bsp/Src/NRF24.c **** 
 142:Bsp/Src/NRF24.c **** 		break;
 143:Bsp/Src/NRF24.c **** 	case 3:
 144:Bsp/Src/NRF24.c **** 		nrf24_w_reg(RX_PW_P3, &size, 1);
 145:Bsp/Src/NRF24.c **** 
 146:Bsp/Src/NRF24.c **** 		break;
 147:Bsp/Src/NRF24.c **** 	case 4:
 148:Bsp/Src/NRF24.c **** 		nrf24_w_reg(RX_PW_P4, &size, 1);
 149:Bsp/Src/NRF24.c **** 
 150:Bsp/Src/NRF24.c **** 		break;
ARM GAS  C:\Users\l1234\AppData\Local\Temp\ccOAvSgI.s 			page 17


 151:Bsp/Src/NRF24.c **** 	case 5:
 152:Bsp/Src/NRF24.c **** 		nrf24_w_reg(RX_PW_P5, &size, 1);
 153:Bsp/Src/NRF24.c **** 
 154:Bsp/Src/NRF24.c **** 		break;
 155:Bsp/Src/NRF24.c **** 	}
 156:Bsp/Src/NRF24.c **** }
 790              		.loc 1 156 1 is_stmt 0 view .LVU128
 791 002e 03B0     		add	sp, sp, #12
 792              	.LCFI34:
 793              		.cfi_remember_state
 794              		.cfi_def_cfa_offset 4
 795              		@ sp needed
 796 0030 5DF804FB 		ldr	pc, [sp], #4
 797              	.LVL49:
 798              	.L61:
 799              	.LCFI35:
 800              		.cfi_restore_state
 136:Bsp/Src/NRF24.c **** 
 801              		.loc 1 136 3 is_stmt 1 view .LVU129
 802 0034 0122     		movs	r2, #1
 803 0036 0DF10701 		add	r1, sp, #7
 804              	.LVL50:
 136:Bsp/Src/NRF24.c **** 
 805              		.loc 1 136 3 is_stmt 0 view .LVU130
 806 003a 1220     		movs	r0, #18
 807              	.LVL51:
 136:Bsp/Src/NRF24.c **** 
 808              		.loc 1 136 3 view .LVU131
 809 003c FFF7FEFF 		bl	nrf24_w_reg
 810              	.LVL52:
 138:Bsp/Src/NRF24.c **** 	case 2:
 811              		.loc 1 138 3 is_stmt 1 view .LVU132
 812 0040 F5E7     		b	.L53
 813              	.LVL53:
 814              	.L60:
 140:Bsp/Src/NRF24.c **** 
 815              		.loc 1 140 3 view .LVU133
 816 0042 0122     		movs	r2, #1
 817 0044 0DF10701 		add	r1, sp, #7
 818              	.LVL54:
 140:Bsp/Src/NRF24.c **** 
 819              		.loc 1 140 3 is_stmt 0 view .LVU134
 820 0048 1320     		movs	r0, #19
 821              	.LVL55:
 140:Bsp/Src/NRF24.c **** 
 822              		.loc 1 140 3 view .LVU135
 823 004a FFF7FEFF 		bl	nrf24_w_reg
 824              	.LVL56:
 142:Bsp/Src/NRF24.c **** 	case 3:
 825              		.loc 1 142 3 is_stmt 1 view .LVU136
 826 004e EEE7     		b	.L53
 827              	.LVL57:
 828              	.L59:
 144:Bsp/Src/NRF24.c **** 
 829              		.loc 1 144 3 view .LVU137
 830 0050 0122     		movs	r2, #1
 831 0052 0DF10701 		add	r1, sp, #7
ARM GAS  C:\Users\l1234\AppData\Local\Temp\ccOAvSgI.s 			page 18


 832              	.LVL58:
 144:Bsp/Src/NRF24.c **** 
 833              		.loc 1 144 3 is_stmt 0 view .LVU138
 834 0056 1420     		movs	r0, #20
 835              	.LVL59:
 144:Bsp/Src/NRF24.c **** 
 836              		.loc 1 144 3 view .LVU139
 837 0058 FFF7FEFF 		bl	nrf24_w_reg
 838              	.LVL60:
 146:Bsp/Src/NRF24.c **** 	case 4:
 839              		.loc 1 146 3 is_stmt 1 view .LVU140
 840 005c E7E7     		b	.L53
 841              	.LVL61:
 842              	.L58:
 148:Bsp/Src/NRF24.c **** 
 843              		.loc 1 148 3 view .LVU141
 844 005e 0122     		movs	r2, #1
 845 0060 0DF10701 		add	r1, sp, #7
 846              	.LVL62:
 148:Bsp/Src/NRF24.c **** 
 847              		.loc 1 148 3 is_stmt 0 view .LVU142
 848 0064 1520     		movs	r0, #21
 849              	.LVL63:
 148:Bsp/Src/NRF24.c **** 
 850              		.loc 1 148 3 view .LVU143
 851 0066 FFF7FEFF 		bl	nrf24_w_reg
 852              	.LVL64:
 150:Bsp/Src/NRF24.c **** 	case 5:
 853              		.loc 1 150 3 is_stmt 1 view .LVU144
 854 006a E0E7     		b	.L53
 855              	.LVL65:
 856              	.L56:
 152:Bsp/Src/NRF24.c **** 
 857              		.loc 1 152 3 view .LVU145
 858 006c 0122     		movs	r2, #1
 859 006e 0DF10701 		add	r1, sp, #7
 860              	.LVL66:
 152:Bsp/Src/NRF24.c **** 
 861              		.loc 1 152 3 is_stmt 0 view .LVU146
 862 0072 1620     		movs	r0, #22
 863              	.LVL67:
 152:Bsp/Src/NRF24.c **** 
 864              		.loc 1 152 3 view .LVU147
 865 0074 FFF7FEFF 		bl	nrf24_w_reg
 866              	.LVL68:
 154:Bsp/Src/NRF24.c **** 	}
 867              		.loc 1 154 3 is_stmt 1 view .LVU148
 868              		.loc 1 156 1 is_stmt 0 view .LVU149
 869 0078 D9E7     		b	.L53
 870              		.cfi_endproc
 871              	.LFE83:
 873              		.section	.text.nrf24_open_rx_pipe,"ax",%progbits
 874              		.align	1
 875              		.global	nrf24_open_rx_pipe
 876              		.syntax unified
 877              		.thumb
 878              		.thumb_func
ARM GAS  C:\Users\l1234\AppData\Local\Temp\ccOAvSgI.s 			page 19


 880              	nrf24_open_rx_pipe:
 881              	.LVL69:
 882              	.LFB84:
 157:Bsp/Src/NRF24.c **** 
 158:Bsp/Src/NRF24.c **** void nrf24_open_rx_pipe(uint8_t pipe, uint8_t *addr){
 883              		.loc 1 158 53 is_stmt 1 view -0
 884              		.cfi_startproc
 885              		@ args = 0, pretend = 0, frame = 8
 886              		@ frame_needed = 0, uses_anonymous_args = 0
 887              		.loc 1 158 53 is_stmt 0 view .LVU151
 888 0000 30B5     		push	{r4, r5, lr}
 889              	.LCFI36:
 890              		.cfi_def_cfa_offset 12
 891              		.cfi_offset 4, -12
 892              		.cfi_offset 5, -8
 893              		.cfi_offset 14, -4
 894 0002 83B0     		sub	sp, sp, #12
 895              	.LCFI37:
 896              		.cfi_def_cfa_offset 24
 897 0004 0446     		mov	r4, r0
 898 0006 0D46     		mov	r5, r1
 159:Bsp/Src/NRF24.c **** 
 160:Bsp/Src/NRF24.c **** 	uint8_t data = 0;
 899              		.loc 1 160 2 is_stmt 1 view .LVU152
 900              		.loc 1 160 10 is_stmt 0 view .LVU153
 901 0008 0023     		movs	r3, #0
 902 000a 8DF80730 		strb	r3, [sp, #7]
 161:Bsp/Src/NRF24.c **** 
 162:Bsp/Src/NRF24.c **** 	data = nrf24_r_reg(EN_RXADDR, 1);
 903              		.loc 1 162 2 is_stmt 1 view .LVU154
 904              		.loc 1 162 9 is_stmt 0 view .LVU155
 905 000e 0121     		movs	r1, #1
 906              	.LVL70:
 907              		.loc 1 162 9 view .LVU156
 908 0010 0220     		movs	r0, #2
 909              	.LVL71:
 910              		.loc 1 162 9 view .LVU157
 911 0012 FFF7FEFF 		bl	nrf24_r_reg
 912              	.LVL72:
 913              		.loc 1 162 7 view .LVU158
 914 0016 8DF80700 		strb	r0, [sp, #7]
 163:Bsp/Src/NRF24.c **** 
 164:Bsp/Src/NRF24.c **** 	switch(pipe){
 915              		.loc 1 164 2 is_stmt 1 view .LVU159
 916 001a 052C     		cmp	r4, #5
 917 001c 0FD8     		bhi	.L66
 918 001e DFE804F0 		tbb	[pc, r4]
 919              	.L68:
 920 0022 03       		.byte	(.L73-.L68)/2
 921 0023 16       		.byte	(.L72-.L68)/2
 922 0024 22       		.byte	(.L71-.L68)/2
 923 0025 2E       		.byte	(.L70-.L68)/2
 924 0026 3A       		.byte	(.L69-.L68)/2
 925 0027 46       		.byte	(.L67-.L68)/2
 926              		.p2align 1
 927              	.L73:
 165:Bsp/Src/NRF24.c **** 	case 0:
ARM GAS  C:\Users\l1234\AppData\Local\Temp\ccOAvSgI.s 			page 20


 166:Bsp/Src/NRF24.c **** 		nrf24_w_reg(RX_ADDR_P0, addr, 5);
 928              		.loc 1 166 3 view .LVU160
 929 0028 0522     		movs	r2, #5
 930 002a 2946     		mov	r1, r5
 931 002c 0A20     		movs	r0, #10
 932 002e FFF7FEFF 		bl	nrf24_w_reg
 933              	.LVL73:
 167:Bsp/Src/NRF24.c **** 
 168:Bsp/Src/NRF24.c **** 		data |= (1 << ERX_P0);
 934              		.loc 1 168 3 view .LVU161
 935              		.loc 1 168 8 is_stmt 0 view .LVU162
 936 0032 9DF80730 		ldrb	r3, [sp, #7]	@ zero_extendqisi2
 937 0036 43F00103 		orr	r3, r3, #1
 938 003a 8DF80730 		strb	r3, [sp, #7]
 169:Bsp/Src/NRF24.c **** 		break;
 939              		.loc 1 169 3 is_stmt 1 view .LVU163
 940              	.L66:
 170:Bsp/Src/NRF24.c **** 	case 1:
 171:Bsp/Src/NRF24.c **** 		nrf24_w_reg(RX_ADDR_P1, addr, 5);
 172:Bsp/Src/NRF24.c **** 
 173:Bsp/Src/NRF24.c **** 		data |= (1 << ERX_P1);
 174:Bsp/Src/NRF24.c **** 		break;
 175:Bsp/Src/NRF24.c **** 	case 2:
 176:Bsp/Src/NRF24.c **** 		nrf24_w_reg(RX_ADDR_P2, addr, 1);
 177:Bsp/Src/NRF24.c **** 
 178:Bsp/Src/NRF24.c **** 		data |= (1 << ERX_P2);
 179:Bsp/Src/NRF24.c **** 		break;
 180:Bsp/Src/NRF24.c **** 	case 3:
 181:Bsp/Src/NRF24.c **** 		nrf24_w_reg(RX_ADDR_P3, addr, 1);
 182:Bsp/Src/NRF24.c **** 
 183:Bsp/Src/NRF24.c **** 		data |= (1 << ERX_P3);
 184:Bsp/Src/NRF24.c **** 		break;
 185:Bsp/Src/NRF24.c **** 	case 4:
 186:Bsp/Src/NRF24.c **** 		nrf24_w_reg(RX_ADDR_P4, addr, 1);
 187:Bsp/Src/NRF24.c **** 
 188:Bsp/Src/NRF24.c **** 		data |= (1 << ERX_P4);
 189:Bsp/Src/NRF24.c **** 		break;
 190:Bsp/Src/NRF24.c **** 	case 5:
 191:Bsp/Src/NRF24.c **** 		nrf24_w_reg(RX_ADDR_P5, addr, 1);
 192:Bsp/Src/NRF24.c **** 
 193:Bsp/Src/NRF24.c **** 		data |= (1 << ERX_P5);
 194:Bsp/Src/NRF24.c **** 		break;
 195:Bsp/Src/NRF24.c **** 	}
 196:Bsp/Src/NRF24.c **** 
 197:Bsp/Src/NRF24.c **** 	nrf24_w_reg(EN_RXADDR, &data, 1);
 941              		.loc 1 197 2 view .LVU164
 942 003e 0122     		movs	r2, #1
 943 0040 0DF10701 		add	r1, sp, #7
 944 0044 0220     		movs	r0, #2
 945 0046 FFF7FEFF 		bl	nrf24_w_reg
 946              	.LVL74:
 198:Bsp/Src/NRF24.c **** }
 947              		.loc 1 198 1 is_stmt 0 view .LVU165
 948 004a 03B0     		add	sp, sp, #12
 949              	.LCFI38:
 950              		.cfi_remember_state
 951              		.cfi_def_cfa_offset 12
ARM GAS  C:\Users\l1234\AppData\Local\Temp\ccOAvSgI.s 			page 21


 952              		@ sp needed
 953 004c 30BD     		pop	{r4, r5, pc}
 954              	.LVL75:
 955              	.L72:
 956              	.LCFI39:
 957              		.cfi_restore_state
 171:Bsp/Src/NRF24.c **** 
 958              		.loc 1 171 3 is_stmt 1 view .LVU166
 959 004e 0522     		movs	r2, #5
 960 0050 2946     		mov	r1, r5
 961 0052 0B20     		movs	r0, #11
 962 0054 FFF7FEFF 		bl	nrf24_w_reg
 963              	.LVL76:
 173:Bsp/Src/NRF24.c **** 		break;
 964              		.loc 1 173 3 view .LVU167
 173:Bsp/Src/NRF24.c **** 		break;
 965              		.loc 1 173 8 is_stmt 0 view .LVU168
 966 0058 9DF80730 		ldrb	r3, [sp, #7]	@ zero_extendqisi2
 967 005c 43F00203 		orr	r3, r3, #2
 968 0060 8DF80730 		strb	r3, [sp, #7]
 174:Bsp/Src/NRF24.c **** 	case 2:
 969              		.loc 1 174 3 is_stmt 1 view .LVU169
 970 0064 EBE7     		b	.L66
 971              	.L71:
 176:Bsp/Src/NRF24.c **** 
 972              		.loc 1 176 3 view .LVU170
 973 0066 0122     		movs	r2, #1
 974 0068 2946     		mov	r1, r5
 975 006a 0C20     		movs	r0, #12
 976 006c FFF7FEFF 		bl	nrf24_w_reg
 977              	.LVL77:
 178:Bsp/Src/NRF24.c **** 		break;
 978              		.loc 1 178 3 view .LVU171
 178:Bsp/Src/NRF24.c **** 		break;
 979              		.loc 1 178 8 is_stmt 0 view .LVU172
 980 0070 9DF80730 		ldrb	r3, [sp, #7]	@ zero_extendqisi2
 981 0074 43F00403 		orr	r3, r3, #4
 982 0078 8DF80730 		strb	r3, [sp, #7]
 179:Bsp/Src/NRF24.c **** 	case 3:
 983              		.loc 1 179 3 is_stmt 1 view .LVU173
 984 007c DFE7     		b	.L66
 985              	.L70:
 181:Bsp/Src/NRF24.c **** 
 986              		.loc 1 181 3 view .LVU174
 987 007e 0122     		movs	r2, #1
 988 0080 2946     		mov	r1, r5
 989 0082 0D20     		movs	r0, #13
 990 0084 FFF7FEFF 		bl	nrf24_w_reg
 991              	.LVL78:
 183:Bsp/Src/NRF24.c **** 		break;
 992              		.loc 1 183 3 view .LVU175
 183:Bsp/Src/NRF24.c **** 		break;
 993              		.loc 1 183 8 is_stmt 0 view .LVU176
 994 0088 9DF80730 		ldrb	r3, [sp, #7]	@ zero_extendqisi2
 995 008c 43F00803 		orr	r3, r3, #8
 996 0090 8DF80730 		strb	r3, [sp, #7]
 184:Bsp/Src/NRF24.c **** 	case 4:
ARM GAS  C:\Users\l1234\AppData\Local\Temp\ccOAvSgI.s 			page 22


 997              		.loc 1 184 3 is_stmt 1 view .LVU177
 998 0094 D3E7     		b	.L66
 999              	.L69:
 186:Bsp/Src/NRF24.c **** 
 1000              		.loc 1 186 3 view .LVU178
 1001 0096 0122     		movs	r2, #1
 1002 0098 2946     		mov	r1, r5
 1003 009a 0E20     		movs	r0, #14
 1004 009c FFF7FEFF 		bl	nrf24_w_reg
 1005              	.LVL79:
 188:Bsp/Src/NRF24.c **** 		break;
 1006              		.loc 1 188 3 view .LVU179
 188:Bsp/Src/NRF24.c **** 		break;
 1007              		.loc 1 188 8 is_stmt 0 view .LVU180
 1008 00a0 9DF80730 		ldrb	r3, [sp, #7]	@ zero_extendqisi2
 1009 00a4 43F01003 		orr	r3, r3, #16
 1010 00a8 8DF80730 		strb	r3, [sp, #7]
 189:Bsp/Src/NRF24.c **** 	case 5:
 1011              		.loc 1 189 3 is_stmt 1 view .LVU181
 1012 00ac C7E7     		b	.L66
 1013              	.L67:
 191:Bsp/Src/NRF24.c **** 
 1014              		.loc 1 191 3 view .LVU182
 1015 00ae 0122     		movs	r2, #1
 1016 00b0 2946     		mov	r1, r5
 1017 00b2 0F20     		movs	r0, #15
 1018 00b4 FFF7FEFF 		bl	nrf24_w_reg
 1019              	.LVL80:
 193:Bsp/Src/NRF24.c **** 		break;
 1020              		.loc 1 193 3 view .LVU183
 193:Bsp/Src/NRF24.c **** 		break;
 1021              		.loc 1 193 8 is_stmt 0 view .LVU184
 1022 00b8 9DF80730 		ldrb	r3, [sp, #7]	@ zero_extendqisi2
 1023 00bc 43F02003 		orr	r3, r3, #32
 1024 00c0 8DF80730 		strb	r3, [sp, #7]
 194:Bsp/Src/NRF24.c **** 	}
 1025              		.loc 1 194 3 is_stmt 1 view .LVU185
 1026 00c4 BBE7     		b	.L66
 1027              		.cfi_endproc
 1028              	.LFE84:
 1030              		.section	.text.nrf24_cls_rx_pipe,"ax",%progbits
 1031              		.align	1
 1032              		.global	nrf24_cls_rx_pipe
 1033              		.syntax unified
 1034              		.thumb
 1035              		.thumb_func
 1037              	nrf24_cls_rx_pipe:
 1038              	.LVL81:
 1039              	.LFB85:
 199:Bsp/Src/NRF24.c **** 
 200:Bsp/Src/NRF24.c **** void nrf24_cls_rx_pipe(uint8_t pipe){
 1040              		.loc 1 200 37 view -0
 1041              		.cfi_startproc
 1042              		@ args = 0, pretend = 0, frame = 8
 1043              		@ frame_needed = 0, uses_anonymous_args = 0
 1044              		.loc 1 200 37 is_stmt 0 view .LVU187
 1045 0000 10B5     		push	{r4, lr}
ARM GAS  C:\Users\l1234\AppData\Local\Temp\ccOAvSgI.s 			page 23


 1046              	.LCFI40:
 1047              		.cfi_def_cfa_offset 8
 1048              		.cfi_offset 4, -8
 1049              		.cfi_offset 14, -4
 1050 0002 82B0     		sub	sp, sp, #8
 1051              	.LCFI41:
 1052              		.cfi_def_cfa_offset 16
 1053 0004 0446     		mov	r4, r0
 201:Bsp/Src/NRF24.c **** 	uint8_t data = nrf24_r_reg(EN_RXADDR, 1);
 1054              		.loc 1 201 2 is_stmt 1 view .LVU188
 1055              		.loc 1 201 17 is_stmt 0 view .LVU189
 1056 0006 0121     		movs	r1, #1
 1057 0008 0220     		movs	r0, #2
 1058              	.LVL82:
 1059              		.loc 1 201 17 view .LVU190
 1060 000a FFF7FEFF 		bl	nrf24_r_reg
 1061              	.LVL83:
 1062              		.loc 1 201 10 view .LVU191
 1063 000e 8DF80700 		strb	r0, [sp, #7]
 202:Bsp/Src/NRF24.c **** 
 203:Bsp/Src/NRF24.c **** 	data &= ~(1 << pipe);
 1064              		.loc 1 203 2 is_stmt 1 view .LVU192
 1065              		.loc 1 203 14 is_stmt 0 view .LVU193
 1066 0012 0122     		movs	r2, #1
 1067 0014 02FA04F4 		lsl	r4, r2, r4
 1068              		.loc 1 203 7 view .LVU194
 1069 0018 E443     		mvns	r4, r4
 1070 001a 64B2     		sxtb	r4, r4
 1071 001c 2040     		ands	r0, r0, r4
 1072 001e 8DF80700 		strb	r0, [sp, #7]
 204:Bsp/Src/NRF24.c **** 
 205:Bsp/Src/NRF24.c **** 	nrf24_w_reg(EN_RXADDR, &data, 1);
 1073              		.loc 1 205 2 is_stmt 1 view .LVU195
 1074 0022 0DF10701 		add	r1, sp, #7
 1075 0026 0220     		movs	r0, #2
 1076 0028 FFF7FEFF 		bl	nrf24_w_reg
 1077              	.LVL84:
 206:Bsp/Src/NRF24.c **** }
 1078              		.loc 1 206 1 is_stmt 0 view .LVU196
 1079 002c 02B0     		add	sp, sp, #8
 1080              	.LCFI42:
 1081              		.cfi_def_cfa_offset 8
 1082              		@ sp needed
 1083 002e 10BD     		pop	{r4, pc}
 1084              		.cfi_endproc
 1085              	.LFE85:
 1087              		.section	.text.nrf24_set_crc,"ax",%progbits
 1088              		.align	1
 1089              		.global	nrf24_set_crc
 1090              		.syntax unified
 1091              		.thumb
 1092              		.thumb_func
 1094              	nrf24_set_crc:
 1095              	.LVL85:
 1096              	.LFB86:
 207:Bsp/Src/NRF24.c **** 
 208:Bsp/Src/NRF24.c **** void nrf24_set_crc(uint8_t en_crc, uint8_t crc0){
ARM GAS  C:\Users\l1234\AppData\Local\Temp\ccOAvSgI.s 			page 24


 1097              		.loc 1 208 49 is_stmt 1 view -0
 1098              		.cfi_startproc
 1099              		@ args = 0, pretend = 0, frame = 8
 1100              		@ frame_needed = 0, uses_anonymous_args = 0
 1101              		.loc 1 208 49 is_stmt 0 view .LVU198
 1102 0000 30B5     		push	{r4, r5, lr}
 1103              	.LCFI43:
 1104              		.cfi_def_cfa_offset 12
 1105              		.cfi_offset 4, -12
 1106              		.cfi_offset 5, -8
 1107              		.cfi_offset 14, -4
 1108 0002 83B0     		sub	sp, sp, #12
 1109              	.LCFI44:
 1110              		.cfi_def_cfa_offset 24
 1111 0004 0546     		mov	r5, r0
 1112 0006 0C46     		mov	r4, r1
 209:Bsp/Src/NRF24.c **** 	uint8_t data = nrf24_r_reg(CONFIG, 1);
 1113              		.loc 1 209 2 is_stmt 1 view .LVU199
 1114              		.loc 1 209 17 is_stmt 0 view .LVU200
 1115 0008 0121     		movs	r1, #1
 1116              	.LVL86:
 1117              		.loc 1 209 17 view .LVU201
 1118 000a 0020     		movs	r0, #0
 1119              	.LVL87:
 1120              		.loc 1 209 17 view .LVU202
 1121 000c FFF7FEFF 		bl	nrf24_r_reg
 1122              	.LVL88:
 1123              		.loc 1 209 10 view .LVU203
 1124 0010 8DF80700 		strb	r0, [sp, #7]
 210:Bsp/Src/NRF24.c **** 
 211:Bsp/Src/NRF24.c **** 	data &= ~(1 << EN_CRC) & ~(1 << CRCO);
 1125              		.loc 1 211 2 is_stmt 1 view .LVU204
 1126              		.loc 1 211 7 is_stmt 0 view .LVU205
 1127 0014 00F0F303 		and	r3, r0, #243
 1128 0018 8DF80730 		strb	r3, [sp, #7]
 212:Bsp/Src/NRF24.c **** 
 213:Bsp/Src/NRF24.c **** 	data |= (en_crc << EN_CRC) | (crc0 << CRCO);
 1129              		.loc 1 213 2 is_stmt 1 view .LVU206
 1130              		.loc 1 213 37 is_stmt 0 view .LVU207
 1131 001c A400     		lsls	r4, r4, #2
 1132              		.loc 1 213 29 view .LVU208
 1133 001e 44EAC504 		orr	r4, r4, r5, lsl #3
 1134 0022 64B2     		sxtb	r4, r4
 1135              		.loc 1 213 7 view .LVU209
 1136 0024 2343     		orrs	r3, r3, r4
 1137 0026 8DF80730 		strb	r3, [sp, #7]
 214:Bsp/Src/NRF24.c **** 
 215:Bsp/Src/NRF24.c **** 	nrf24_w_reg(CONFIG, &data, 1);
 1138              		.loc 1 215 2 is_stmt 1 view .LVU210
 1139 002a 0122     		movs	r2, #1
 1140 002c 0DF10701 		add	r1, sp, #7
 1141 0030 0020     		movs	r0, #0
 1142 0032 FFF7FEFF 		bl	nrf24_w_reg
 1143              	.LVL89:
 216:Bsp/Src/NRF24.c **** }
 1144              		.loc 1 216 1 is_stmt 0 view .LVU211
 1145 0036 03B0     		add	sp, sp, #12
ARM GAS  C:\Users\l1234\AppData\Local\Temp\ccOAvSgI.s 			page 25


 1146              	.LCFI45:
 1147              		.cfi_def_cfa_offset 12
 1148              		@ sp needed
 1149 0038 30BD     		pop	{r4, r5, pc}
 1150              		.cfi_endproc
 1151              	.LFE86:
 1153              		.section	.text.nrf24_set_addr_width,"ax",%progbits
 1154              		.align	1
 1155              		.global	nrf24_set_addr_width
 1156              		.syntax unified
 1157              		.thumb
 1158              		.thumb_func
 1160              	nrf24_set_addr_width:
 1161              	.LVL90:
 1162              	.LFB87:
 217:Bsp/Src/NRF24.c **** 
 218:Bsp/Src/NRF24.c **** void nrf24_set_addr_width(uint8_t bytes){
 1163              		.loc 1 218 41 is_stmt 1 view -0
 1164              		.cfi_startproc
 1165              		@ args = 0, pretend = 0, frame = 8
 1166              		@ frame_needed = 0, uses_anonymous_args = 0
 1167              		.loc 1 218 41 is_stmt 0 view .LVU213
 1168 0000 00B5     		push	{lr}
 1169              	.LCFI46:
 1170              		.cfi_def_cfa_offset 4
 1171              		.cfi_offset 14, -4
 1172 0002 83B0     		sub	sp, sp, #12
 1173              	.LCFI47:
 1174              		.cfi_def_cfa_offset 16
 1175 0004 8DF80700 		strb	r0, [sp, #7]
 219:Bsp/Src/NRF24.c **** 	bytes -= 2;
 1176              		.loc 1 219 2 is_stmt 1 view .LVU214
 1177              		.loc 1 219 8 is_stmt 0 view .LVU215
 1178 0008 C3B2     		uxtb	r3, r0
 1179 000a 023B     		subs	r3, r3, #2
 1180 000c 8DF80730 		strb	r3, [sp, #7]
 220:Bsp/Src/NRF24.c **** 	nrf24_w_reg(SETUP_AW, &bytes, 1);
 1181              		.loc 1 220 2 is_stmt 1 view .LVU216
 1182 0010 0122     		movs	r2, #1
 1183 0012 0DF10701 		add	r1, sp, #7
 1184 0016 0320     		movs	r0, #3
 1185              	.LVL91:
 1186              		.loc 1 220 2 is_stmt 0 view .LVU217
 1187 0018 FFF7FEFF 		bl	nrf24_w_reg
 1188              	.LVL92:
 221:Bsp/Src/NRF24.c **** }
 1189              		.loc 1 221 1 view .LVU218
 1190 001c 03B0     		add	sp, sp, #12
 1191              	.LCFI48:
 1192              		.cfi_def_cfa_offset 4
 1193              		@ sp needed
 1194 001e 5DF804FB 		ldr	pc, [sp], #4
 1195              		.cfi_endproc
 1196              	.LFE87:
 1198              		.section	.text.nrf24_flush_tx,"ax",%progbits
 1199              		.align	1
 1200              		.global	nrf24_flush_tx
ARM GAS  C:\Users\l1234\AppData\Local\Temp\ccOAvSgI.s 			page 26


 1201              		.syntax unified
 1202              		.thumb
 1203              		.thumb_func
 1205              	nrf24_flush_tx:
 1206              	.LFB88:
 222:Bsp/Src/NRF24.c **** 
 223:Bsp/Src/NRF24.c **** void nrf24_flush_tx(void){
 1207              		.loc 1 223 26 is_stmt 1 view -0
 1208              		.cfi_startproc
 1209              		@ args = 0, pretend = 0, frame = 0
 1210              		@ frame_needed = 0, uses_anonymous_args = 0
 1211 0000 08B5     		push	{r3, lr}
 1212              	.LCFI49:
 1213              		.cfi_def_cfa_offset 8
 1214              		.cfi_offset 3, -8
 1215              		.cfi_offset 14, -4
 224:Bsp/Src/NRF24.c **** 	csn_low();
 1216              		.loc 1 224 2 view .LVU220
 1217 0002 FFF7FEFF 		bl	csn_low
 1218              	.LVL93:
 225:Bsp/Src/NRF24.c **** 	nrf24_w_spec_cmd(FLUSH_TX);
 1219              		.loc 1 225 2 view .LVU221
 1220 0006 E120     		movs	r0, #225
 1221 0008 FFF7FEFF 		bl	nrf24_w_spec_cmd
 1222              	.LVL94:
 226:Bsp/Src/NRF24.c **** 	csn_high();
 1223              		.loc 1 226 2 view .LVU222
 1224 000c FFF7FEFF 		bl	csn_high
 1225              	.LVL95:
 227:Bsp/Src/NRF24.c **** }
 1226              		.loc 1 227 1 is_stmt 0 view .LVU223
 1227 0010 08BD     		pop	{r3, pc}
 1228              		.cfi_endproc
 1229              	.LFE88:
 1231              		.section	.text.nrf24_flush_rx,"ax",%progbits
 1232              		.align	1
 1233              		.global	nrf24_flush_rx
 1234              		.syntax unified
 1235              		.thumb
 1236              		.thumb_func
 1238              	nrf24_flush_rx:
 1239              	.LFB89:
 228:Bsp/Src/NRF24.c **** 
 229:Bsp/Src/NRF24.c **** void nrf24_flush_rx(void){
 1240              		.loc 1 229 26 is_stmt 1 view -0
 1241              		.cfi_startproc
 1242              		@ args = 0, pretend = 0, frame = 0
 1243              		@ frame_needed = 0, uses_anonymous_args = 0
 1244 0000 08B5     		push	{r3, lr}
 1245              	.LCFI50:
 1246              		.cfi_def_cfa_offset 8
 1247              		.cfi_offset 3, -8
 1248              		.cfi_offset 14, -4
 230:Bsp/Src/NRF24.c **** 	csn_low();
 1249              		.loc 1 230 2 view .LVU225
 1250 0002 FFF7FEFF 		bl	csn_low
 1251              	.LVL96:
ARM GAS  C:\Users\l1234\AppData\Local\Temp\ccOAvSgI.s 			page 27


 231:Bsp/Src/NRF24.c **** 	nrf24_w_spec_cmd(FLUSH_RX);
 1252              		.loc 1 231 2 view .LVU226
 1253 0006 E220     		movs	r0, #226
 1254 0008 FFF7FEFF 		bl	nrf24_w_spec_cmd
 1255              	.LVL97:
 232:Bsp/Src/NRF24.c **** 	csn_high();
 1256              		.loc 1 232 2 view .LVU227
 1257 000c FFF7FEFF 		bl	csn_high
 1258              	.LVL98:
 233:Bsp/Src/NRF24.c **** }
 1259              		.loc 1 233 1 is_stmt 0 view .LVU228
 1260 0010 08BD     		pop	{r3, pc}
 1261              		.cfi_endproc
 1262              	.LFE89:
 1264              		.section	.text.nrf24_r_status,"ax",%progbits
 1265              		.align	1
 1266              		.global	nrf24_r_status
 1267              		.syntax unified
 1268              		.thumb
 1269              		.thumb_func
 1271              	nrf24_r_status:
 1272              	.LFB90:
 234:Bsp/Src/NRF24.c **** 
 235:Bsp/Src/NRF24.c **** uint8_t nrf24_r_status(void){
 1273              		.loc 1 235 29 is_stmt 1 view -0
 1274              		.cfi_startproc
 1275              		@ args = 0, pretend = 0, frame = 8
 1276              		@ frame_needed = 0, uses_anonymous_args = 0
 1277 0000 00B5     		push	{lr}
 1278              	.LCFI51:
 1279              		.cfi_def_cfa_offset 4
 1280              		.cfi_offset 14, -4
 1281 0002 85B0     		sub	sp, sp, #20
 1282              	.LCFI52:
 1283              		.cfi_def_cfa_offset 24
 236:Bsp/Src/NRF24.c **** 	uint8_t data = 0;
 1284              		.loc 1 236 2 view .LVU230
 1285              		.loc 1 236 10 is_stmt 0 view .LVU231
 1286 0004 0023     		movs	r3, #0
 1287 0006 8DF80F30 		strb	r3, [sp, #15]
 237:Bsp/Src/NRF24.c **** 	uint8_t cmd = NOP_CMD;
 1288              		.loc 1 237 2 is_stmt 1 view .LVU232
 1289              		.loc 1 237 10 is_stmt 0 view .LVU233
 1290 000a FF23     		movs	r3, #255
 1291 000c 8DF80E30 		strb	r3, [sp, #14]
 238:Bsp/Src/NRF24.c **** 
 239:Bsp/Src/NRF24.c **** 	csn_low();
 1292              		.loc 1 239 2 is_stmt 1 view .LVU234
 1293 0010 FFF7FEFF 		bl	csn_low
 1294              	.LVL99:
 240:Bsp/Src/NRF24.c **** 	HAL_SPI_TransmitReceive(&hspiX, &cmd, &data, 1, spi_rw_timeout);
 1295              		.loc 1 240 2 view .LVU235
 1296 0014 4FF47A73 		mov	r3, #1000
 1297 0018 0093     		str	r3, [sp]
 1298 001a 0123     		movs	r3, #1
 1299 001c 0DF10F02 		add	r2, sp, #15
 1300 0020 0DF10E01 		add	r1, sp, #14
ARM GAS  C:\Users\l1234\AppData\Local\Temp\ccOAvSgI.s 			page 28


 1301 0024 0448     		ldr	r0, .L88
 1302 0026 FFF7FEFF 		bl	HAL_SPI_TransmitReceive
 1303              	.LVL100:
 241:Bsp/Src/NRF24.c **** 	csn_high();
 1304              		.loc 1 241 2 view .LVU236
 1305 002a FFF7FEFF 		bl	csn_high
 1306              	.LVL101:
 242:Bsp/Src/NRF24.c **** 
 243:Bsp/Src/NRF24.c **** 	return data;
 1307              		.loc 1 243 2 view .LVU237
 244:Bsp/Src/NRF24.c **** }
 1308              		.loc 1 244 1 is_stmt 0 view .LVU238
 1309 002e 9DF80F00 		ldrb	r0, [sp, #15]	@ zero_extendqisi2
 1310 0032 05B0     		add	sp, sp, #20
 1311              	.LCFI53:
 1312              		.cfi_def_cfa_offset 4
 1313              		@ sp needed
 1314 0034 5DF804FB 		ldr	pc, [sp], #4
 1315              	.L89:
 1316              		.align	2
 1317              	.L88:
 1318 0038 00000000 		.word	hspi2
 1319              		.cfi_endproc
 1320              	.LFE90:
 1322              		.section	.text.nrf24_clear_rx_dr,"ax",%progbits
 1323              		.align	1
 1324              		.global	nrf24_clear_rx_dr
 1325              		.syntax unified
 1326              		.thumb
 1327              		.thumb_func
 1329              	nrf24_clear_rx_dr:
 1330              	.LFB91:
 245:Bsp/Src/NRF24.c **** 
 246:Bsp/Src/NRF24.c **** void nrf24_clear_rx_dr(void){
 1331              		.loc 1 246 29 is_stmt 1 view -0
 1332              		.cfi_startproc
 1333              		@ args = 0, pretend = 0, frame = 8
 1334              		@ frame_needed = 0, uses_anonymous_args = 0
 1335 0000 00B5     		push	{lr}
 1336              	.LCFI54:
 1337              		.cfi_def_cfa_offset 4
 1338              		.cfi_offset 14, -4
 1339 0002 83B0     		sub	sp, sp, #12
 1340              	.LCFI55:
 1341              		.cfi_def_cfa_offset 16
 247:Bsp/Src/NRF24.c **** 	uint8_t data = 0;
 1342              		.loc 1 247 2 view .LVU240
 1343              		.loc 1 247 10 is_stmt 0 view .LVU241
 1344 0004 0023     		movs	r3, #0
 1345 0006 8DF80730 		strb	r3, [sp, #7]
 248:Bsp/Src/NRF24.c **** 
 249:Bsp/Src/NRF24.c **** 	data = nrf24_r_status();
 1346              		.loc 1 249 2 is_stmt 1 view .LVU242
 1347              		.loc 1 249 9 is_stmt 0 view .LVU243
 1348 000a FFF7FEFF 		bl	nrf24_r_status
 1349              	.LVL102:
 1350              		.loc 1 249 7 view .LVU244
ARM GAS  C:\Users\l1234\AppData\Local\Temp\ccOAvSgI.s 			page 29


 1351 000e 8DF80700 		strb	r0, [sp, #7]
 250:Bsp/Src/NRF24.c **** 
 251:Bsp/Src/NRF24.c **** 	data |= (1 << RX_DR);
 1352              		.loc 1 251 2 is_stmt 1 view .LVU245
 1353              		.loc 1 251 7 is_stmt 0 view .LVU246
 1354 0012 40F04000 		orr	r0, r0, #64
 1355 0016 8DF80700 		strb	r0, [sp, #7]
 252:Bsp/Src/NRF24.c **** 
 253:Bsp/Src/NRF24.c **** 	nrf24_w_reg(STATUS, &data, 1);
 1356              		.loc 1 253 2 is_stmt 1 view .LVU247
 1357 001a 0122     		movs	r2, #1
 1358 001c 0DF10701 		add	r1, sp, #7
 1359 0020 0720     		movs	r0, #7
 1360 0022 FFF7FEFF 		bl	nrf24_w_reg
 1361              	.LVL103:
 254:Bsp/Src/NRF24.c **** }
 1362              		.loc 1 254 1 is_stmt 0 view .LVU248
 1363 0026 03B0     		add	sp, sp, #12
 1364              	.LCFI56:
 1365              		.cfi_def_cfa_offset 4
 1366              		@ sp needed
 1367 0028 5DF804FB 		ldr	pc, [sp], #4
 1368              		.cfi_endproc
 1369              	.LFE91:
 1371              		.section	.text.nrf24_clear_tx_ds,"ax",%progbits
 1372              		.align	1
 1373              		.global	nrf24_clear_tx_ds
 1374              		.syntax unified
 1375              		.thumb
 1376              		.thumb_func
 1378              	nrf24_clear_tx_ds:
 1379              	.LFB92:
 255:Bsp/Src/NRF24.c **** 
 256:Bsp/Src/NRF24.c **** void nrf24_clear_tx_ds(void){
 1380              		.loc 1 256 29 is_stmt 1 view -0
 1381              		.cfi_startproc
 1382              		@ args = 0, pretend = 0, frame = 8
 1383              		@ frame_needed = 0, uses_anonymous_args = 0
 1384 0000 00B5     		push	{lr}
 1385              	.LCFI57:
 1386              		.cfi_def_cfa_offset 4
 1387              		.cfi_offset 14, -4
 1388 0002 83B0     		sub	sp, sp, #12
 1389              	.LCFI58:
 1390              		.cfi_def_cfa_offset 16
 257:Bsp/Src/NRF24.c **** 	uint8_t data = 0;
 1391              		.loc 1 257 2 view .LVU250
 1392              		.loc 1 257 10 is_stmt 0 view .LVU251
 1393 0004 0023     		movs	r3, #0
 1394 0006 8DF80730 		strb	r3, [sp, #7]
 258:Bsp/Src/NRF24.c **** 
 259:Bsp/Src/NRF24.c **** 	data = nrf24_r_status();
 1395              		.loc 1 259 2 is_stmt 1 view .LVU252
 1396              		.loc 1 259 9 is_stmt 0 view .LVU253
 1397 000a FFF7FEFF 		bl	nrf24_r_status
 1398              	.LVL104:
 1399              		.loc 1 259 7 view .LVU254
ARM GAS  C:\Users\l1234\AppData\Local\Temp\ccOAvSgI.s 			page 30


 1400 000e 8DF80700 		strb	r0, [sp, #7]
 260:Bsp/Src/NRF24.c **** 
 261:Bsp/Src/NRF24.c **** 	data |= (1 << TX_DS);
 1401              		.loc 1 261 2 is_stmt 1 view .LVU255
 1402              		.loc 1 261 7 is_stmt 0 view .LVU256
 1403 0012 40F02000 		orr	r0, r0, #32
 1404 0016 8DF80700 		strb	r0, [sp, #7]
 262:Bsp/Src/NRF24.c **** 
 263:Bsp/Src/NRF24.c ****     nrf24_w_reg(STATUS, &data, 1);
 1405              		.loc 1 263 5 is_stmt 1 view .LVU257
 1406 001a 0122     		movs	r2, #1
 1407 001c 0DF10701 		add	r1, sp, #7
 1408 0020 0720     		movs	r0, #7
 1409 0022 FFF7FEFF 		bl	nrf24_w_reg
 1410              	.LVL105:
 264:Bsp/Src/NRF24.c **** }
 1411              		.loc 1 264 1 is_stmt 0 view .LVU258
 1412 0026 03B0     		add	sp, sp, #12
 1413              	.LCFI59:
 1414              		.cfi_def_cfa_offset 4
 1415              		@ sp needed
 1416 0028 5DF804FB 		ldr	pc, [sp], #4
 1417              		.cfi_endproc
 1418              	.LFE92:
 1420              		.section	.text.nrf24_clear_max_rt,"ax",%progbits
 1421              		.align	1
 1422              		.global	nrf24_clear_max_rt
 1423              		.syntax unified
 1424              		.thumb
 1425              		.thumb_func
 1427              	nrf24_clear_max_rt:
 1428              	.LFB93:
 265:Bsp/Src/NRF24.c **** 
 266:Bsp/Src/NRF24.c **** void nrf24_clear_max_rt(void){
 1429              		.loc 1 266 30 is_stmt 1 view -0
 1430              		.cfi_startproc
 1431              		@ args = 0, pretend = 0, frame = 8
 1432              		@ frame_needed = 0, uses_anonymous_args = 0
 1433 0000 00B5     		push	{lr}
 1434              	.LCFI60:
 1435              		.cfi_def_cfa_offset 4
 1436              		.cfi_offset 14, -4
 1437 0002 83B0     		sub	sp, sp, #12
 1438              	.LCFI61:
 1439              		.cfi_def_cfa_offset 16
 267:Bsp/Src/NRF24.c **** 	uint8_t data = 0;
 1440              		.loc 1 267 2 view .LVU260
 1441              		.loc 1 267 10 is_stmt 0 view .LVU261
 1442 0004 0023     		movs	r3, #0
 1443 0006 8DF80730 		strb	r3, [sp, #7]
 268:Bsp/Src/NRF24.c **** 
 269:Bsp/Src/NRF24.c **** 	data = nrf24_r_status();
 1444              		.loc 1 269 2 is_stmt 1 view .LVU262
 1445              		.loc 1 269 9 is_stmt 0 view .LVU263
 1446 000a FFF7FEFF 		bl	nrf24_r_status
 1447              	.LVL106:
 1448              		.loc 1 269 7 view .LVU264
ARM GAS  C:\Users\l1234\AppData\Local\Temp\ccOAvSgI.s 			page 31


 1449 000e 8DF80700 		strb	r0, [sp, #7]
 270:Bsp/Src/NRF24.c **** 
 271:Bsp/Src/NRF24.c **** 	data |= (1 << MAX_RT);
 1450              		.loc 1 271 2 is_stmt 1 view .LVU265
 1451              		.loc 1 271 7 is_stmt 0 view .LVU266
 1452 0012 40F01000 		orr	r0, r0, #16
 1453 0016 8DF80700 		strb	r0, [sp, #7]
 272:Bsp/Src/NRF24.c **** 
 273:Bsp/Src/NRF24.c ****     nrf24_w_reg(STATUS, &data, 1);
 1454              		.loc 1 273 5 is_stmt 1 view .LVU267
 1455 001a 0122     		movs	r2, #1
 1456 001c 0DF10701 		add	r1, sp, #7
 1457 0020 0720     		movs	r0, #7
 1458 0022 FFF7FEFF 		bl	nrf24_w_reg
 1459              	.LVL107:
 274:Bsp/Src/NRF24.c **** }
 1460              		.loc 1 274 1 is_stmt 0 view .LVU268
 1461 0026 03B0     		add	sp, sp, #12
 1462              	.LCFI62:
 1463              		.cfi_def_cfa_offset 4
 1464              		@ sp needed
 1465 0028 5DF804FB 		ldr	pc, [sp], #4
 1466              		.cfi_endproc
 1467              	.LFE93:
 1469              		.section	.text.nrf24_read_bit,"ax",%progbits
 1470              		.align	1
 1471              		.global	nrf24_read_bit
 1472              		.syntax unified
 1473              		.thumb
 1474              		.thumb_func
 1476              	nrf24_read_bit:
 1477              	.LVL108:
 1478              	.LFB94:
 275:Bsp/Src/NRF24.c **** 
 276:Bsp/Src/NRF24.c **** uint8_t nrf24_read_bit(uint8_t reg, uint8_t bit){
 1479              		.loc 1 276 49 is_stmt 1 view -0
 1480              		.cfi_startproc
 1481              		@ args = 0, pretend = 0, frame = 0
 1482              		@ frame_needed = 0, uses_anonymous_args = 0
 1483              		.loc 1 276 49 is_stmt 0 view .LVU270
 1484 0000 10B5     		push	{r4, lr}
 1485              	.LCFI63:
 1486              		.cfi_def_cfa_offset 8
 1487              		.cfi_offset 4, -8
 1488              		.cfi_offset 14, -4
 1489 0002 0C46     		mov	r4, r1
 277:Bsp/Src/NRF24.c **** 
 278:Bsp/Src/NRF24.c **** 	if(nrf24_r_reg(reg, 1) & (1 << bit)){
 1490              		.loc 1 278 2 is_stmt 1 view .LVU271
 1491              		.loc 1 278 5 is_stmt 0 view .LVU272
 1492 0004 0121     		movs	r1, #1
 1493              	.LVL109:
 1494              		.loc 1 278 5 view .LVU273
 1495 0006 FFF7FEFF 		bl	nrf24_r_reg
 1496              	.LVL110:
 1497              		.loc 1 278 5 view .LVU274
 1498 000a 40FA04F1 		asr	r1, r0, r4
ARM GAS  C:\Users\l1234\AppData\Local\Temp\ccOAvSgI.s 			page 32


 1499              		.loc 1 278 4 view .LVU275
 1500 000e 11F0010F 		tst	r1, #1
 1501 0012 01D1     		bne	.L98
 279:Bsp/Src/NRF24.c **** 		return 1;
 280:Bsp/Src/NRF24.c **** 	}
 281:Bsp/Src/NRF24.c **** 
 282:Bsp/Src/NRF24.c **** 	return 0;
 1502              		.loc 1 282 9 view .LVU276
 1503 0014 0020     		movs	r0, #0
 1504              	.L97:
 283:Bsp/Src/NRF24.c **** }
 1505              		.loc 1 283 1 view .LVU277
 1506 0016 10BD     		pop	{r4, pc}
 1507              	.L98:
 279:Bsp/Src/NRF24.c **** 		return 1;
 1508              		.loc 1 279 10 view .LVU278
 1509 0018 0120     		movs	r0, #1
 1510 001a FCE7     		b	.L97
 1511              		.cfi_endproc
 1512              	.LFE94:
 1514              		.section	.text.nrf24_set_bit,"ax",%progbits
 1515              		.align	1
 1516              		.global	nrf24_set_bit
 1517              		.syntax unified
 1518              		.thumb
 1519              		.thumb_func
 1521              	nrf24_set_bit:
 1522              	.LVL111:
 1523              	.LFB95:
 284:Bsp/Src/NRF24.c **** 
 285:Bsp/Src/NRF24.c **** void nrf24_set_bit(uint8_t reg, uint8_t bit, uint8_t val){
 1524              		.loc 1 285 58 is_stmt 1 view -0
 1525              		.cfi_startproc
 1526              		@ args = 0, pretend = 0, frame = 8
 1527              		@ frame_needed = 0, uses_anonymous_args = 0
 1528              		.loc 1 285 58 is_stmt 0 view .LVU280
 1529 0000 70B5     		push	{r4, r5, r6, lr}
 1530              	.LCFI64:
 1531              		.cfi_def_cfa_offset 16
 1532              		.cfi_offset 4, -16
 1533              		.cfi_offset 5, -12
 1534              		.cfi_offset 6, -8
 1535              		.cfi_offset 14, -4
 1536 0002 82B0     		sub	sp, sp, #8
 1537              	.LCFI65:
 1538              		.cfi_def_cfa_offset 24
 1539 0004 0446     		mov	r4, r0
 1540 0006 0D46     		mov	r5, r1
 1541 0008 1646     		mov	r6, r2
 286:Bsp/Src/NRF24.c **** 	uint8_t data = 0;
 1542              		.loc 1 286 2 is_stmt 1 view .LVU281
 1543              		.loc 1 286 10 is_stmt 0 view .LVU282
 1544 000a 0023     		movs	r3, #0
 1545 000c 8DF80730 		strb	r3, [sp, #7]
 287:Bsp/Src/NRF24.c **** 
 288:Bsp/Src/NRF24.c **** 	data = nrf24_r_reg(reg, 1);
 1546              		.loc 1 288 2 is_stmt 1 view .LVU283
ARM GAS  C:\Users\l1234\AppData\Local\Temp\ccOAvSgI.s 			page 33


 1547              		.loc 1 288 9 is_stmt 0 view .LVU284
 1548 0010 0121     		movs	r1, #1
 1549              	.LVL112:
 1550              		.loc 1 288 9 view .LVU285
 1551 0012 FFF7FEFF 		bl	nrf24_r_reg
 1552              	.LVL113:
 1553              		.loc 1 288 7 view .LVU286
 1554 0016 8DF80700 		strb	r0, [sp, #7]
 289:Bsp/Src/NRF24.c **** 
 290:Bsp/Src/NRF24.c **** 	if(val){
 1555              		.loc 1 290 2 is_stmt 1 view .LVU287
 1556              		.loc 1 290 4 is_stmt 0 view .LVU288
 1557 001a 6EB1     		cbz	r6, .L101
 291:Bsp/Src/NRF24.c **** 		data |= (1 << bit);
 1558              		.loc 1 291 3 is_stmt 1 view .LVU289
 1559              		.loc 1 291 14 is_stmt 0 view .LVU290
 1560 001c 0123     		movs	r3, #1
 1561 001e AB40     		lsls	r3, r3, r5
 1562              		.loc 1 291 8 view .LVU291
 1563 0020 40EA0301 		orr	r1, r0, r3
 1564 0024 8DF80710 		strb	r1, [sp, #7]
 1565              	.L102:
 292:Bsp/Src/NRF24.c **** 	}else{
 293:Bsp/Src/NRF24.c **** 		data &= ~(1 << bit);
 294:Bsp/Src/NRF24.c **** 	}
 295:Bsp/Src/NRF24.c **** 
 296:Bsp/Src/NRF24.c ****     nrf24_w_reg(reg, &data, 1);
 1566              		.loc 1 296 5 is_stmt 1 view .LVU292
 1567 0028 0122     		movs	r2, #1
 1568 002a 0DF10701 		add	r1, sp, #7
 1569 002e 2046     		mov	r0, r4
 1570 0030 FFF7FEFF 		bl	nrf24_w_reg
 1571              	.LVL114:
 297:Bsp/Src/NRF24.c **** }
 1572              		.loc 1 297 1 is_stmt 0 view .LVU293
 1573 0034 02B0     		add	sp, sp, #8
 1574              	.LCFI66:
 1575              		.cfi_remember_state
 1576              		.cfi_def_cfa_offset 16
 1577              		@ sp needed
 1578 0036 70BD     		pop	{r4, r5, r6, pc}
 1579              	.L101:
 1580              	.LCFI67:
 1581              		.cfi_restore_state
 293:Bsp/Src/NRF24.c **** 	}
 1582              		.loc 1 293 3 is_stmt 1 view .LVU294
 293:Bsp/Src/NRF24.c **** 	}
 1583              		.loc 1 293 15 is_stmt 0 view .LVU295
 1584 0038 0123     		movs	r3, #1
 1585 003a 03FA05F1 		lsl	r1, r3, r5
 293:Bsp/Src/NRF24.c **** 	}
 1586              		.loc 1 293 8 view .LVU296
 1587 003e C943     		mvns	r1, r1
 1588 0040 49B2     		sxtb	r1, r1
 1589 0042 0140     		ands	r1, r1, r0
 1590 0044 8DF80710 		strb	r1, [sp, #7]
 1591 0048 EEE7     		b	.L102
ARM GAS  C:\Users\l1234\AppData\Local\Temp\ccOAvSgI.s 			page 34


 1592              		.cfi_endproc
 1593              	.LFE95:
 1595              		.section	.text.nrf24_r_pld_wid,"ax",%progbits
 1596              		.align	1
 1597              		.global	nrf24_r_pld_wid
 1598              		.syntax unified
 1599              		.thumb
 1600              		.thumb_func
 1602              	nrf24_r_pld_wid:
 1603              	.LFB96:
 298:Bsp/Src/NRF24.c **** 
 299:Bsp/Src/NRF24.c **** uint8_t nrf24_r_pld_wid(void){
 1604              		.loc 1 299 30 is_stmt 1 view -0
 1605              		.cfi_startproc
 1606              		@ args = 0, pretend = 0, frame = 8
 1607              		@ frame_needed = 0, uses_anonymous_args = 0
 1608 0000 00B5     		push	{lr}
 1609              	.LCFI68:
 1610              		.cfi_def_cfa_offset 4
 1611              		.cfi_offset 14, -4
 1612 0002 83B0     		sub	sp, sp, #12
 1613              	.LCFI69:
 1614              		.cfi_def_cfa_offset 16
 300:Bsp/Src/NRF24.c **** 	uint8_t width = 0;
 1615              		.loc 1 300 2 view .LVU298
 1616              		.loc 1 300 10 is_stmt 0 view .LVU299
 1617 0004 0023     		movs	r3, #0
 1618 0006 8DF80730 		strb	r3, [sp, #7]
 301:Bsp/Src/NRF24.c **** 
 302:Bsp/Src/NRF24.c **** 	csn_low();
 1619              		.loc 1 302 2 is_stmt 1 view .LVU300
 1620 000a FFF7FEFF 		bl	csn_low
 1621              	.LVL115:
 303:Bsp/Src/NRF24.c **** 	nrf24_w_spec_cmd(R_RX_PL_WID);
 1622              		.loc 1 303 2 view .LVU301
 1623 000e 6020     		movs	r0, #96
 1624 0010 FFF7FEFF 		bl	nrf24_w_spec_cmd
 1625              	.LVL116:
 304:Bsp/Src/NRF24.c **** 	nrf24_r_spec_reg(&width, 1);
 1626              		.loc 1 304 2 view .LVU302
 1627 0014 0121     		movs	r1, #1
 1628 0016 0DF10700 		add	r0, sp, #7
 1629 001a FFF7FEFF 		bl	nrf24_r_spec_reg
 1630              	.LVL117:
 305:Bsp/Src/NRF24.c **** 	csn_high();
 1631              		.loc 1 305 2 view .LVU303
 1632 001e FFF7FEFF 		bl	csn_high
 1633              	.LVL118:
 306:Bsp/Src/NRF24.c **** 
 307:Bsp/Src/NRF24.c **** 	return width;
 1634              		.loc 1 307 2 view .LVU304
 308:Bsp/Src/NRF24.c **** }
 1635              		.loc 1 308 1 is_stmt 0 view .LVU305
 1636 0022 9DF80700 		ldrb	r0, [sp, #7]	@ zero_extendqisi2
 1637 0026 03B0     		add	sp, sp, #12
 1638              	.LCFI70:
 1639              		.cfi_def_cfa_offset 4
ARM GAS  C:\Users\l1234\AppData\Local\Temp\ccOAvSgI.s 			page 35


 1640              		@ sp needed
 1641 0028 5DF804FB 		ldr	pc, [sp], #4
 1642              		.cfi_endproc
 1643              	.LFE96:
 1645              		.section	.text.nrf24_listen,"ax",%progbits
 1646              		.align	1
 1647              		.global	nrf24_listen
 1648              		.syntax unified
 1649              		.thumb
 1650              		.thumb_func
 1652              	nrf24_listen:
 1653              	.LFB97:
 309:Bsp/Src/NRF24.c **** 
 310:Bsp/Src/NRF24.c **** void nrf24_listen(void){
 1654              		.loc 1 310 24 is_stmt 1 view -0
 1655              		.cfi_startproc
 1656              		@ args = 0, pretend = 0, frame = 8
 1657              		@ frame_needed = 0, uses_anonymous_args = 0
 1658 0000 10B5     		push	{r4, lr}
 1659              	.LCFI71:
 1660              		.cfi_def_cfa_offset 8
 1661              		.cfi_offset 4, -8
 1662              		.cfi_offset 14, -4
 1663 0002 82B0     		sub	sp, sp, #8
 1664              	.LCFI72:
 1665              		.cfi_def_cfa_offset 16
 311:Bsp/Src/NRF24.c **** 	uint8_t data = 0;
 1666              		.loc 1 311 2 view .LVU307
 1667              		.loc 1 311 10 is_stmt 0 view .LVU308
 1668 0004 0024     		movs	r4, #0
 1669 0006 8DF80740 		strb	r4, [sp, #7]
 312:Bsp/Src/NRF24.c **** 
 313:Bsp/Src/NRF24.c **** 	data = nrf24_r_reg(CONFIG, 1);
 1670              		.loc 1 313 2 is_stmt 1 view .LVU309
 1671              		.loc 1 313 9 is_stmt 0 view .LVU310
 1672 000a 0121     		movs	r1, #1
 1673 000c 2046     		mov	r0, r4
 1674 000e FFF7FEFF 		bl	nrf24_r_reg
 1675              	.LVL119:
 1676              		.loc 1 313 7 view .LVU311
 1677 0012 8DF80700 		strb	r0, [sp, #7]
 314:Bsp/Src/NRF24.c **** 
 315:Bsp/Src/NRF24.c **** 	data |= (1 << PRIM_RX);
 1678              		.loc 1 315 2 is_stmt 1 view .LVU312
 1679              		.loc 1 315 7 is_stmt 0 view .LVU313
 1680 0016 40F00100 		orr	r0, r0, #1
 1681 001a 8DF80700 		strb	r0, [sp, #7]
 316:Bsp/Src/NRF24.c **** 
 317:Bsp/Src/NRF24.c **** 	nrf24_w_reg(CONFIG, &data, 1);
 1682              		.loc 1 317 2 is_stmt 1 view .LVU314
 1683 001e 0122     		movs	r2, #1
 1684 0020 0DF10701 		add	r1, sp, #7
 1685 0024 2046     		mov	r0, r4
 1686 0026 FFF7FEFF 		bl	nrf24_w_reg
 1687              	.LVL120:
 318:Bsp/Src/NRF24.c **** 
 319:Bsp/Src/NRF24.c **** 	ce_high();
ARM GAS  C:\Users\l1234\AppData\Local\Temp\ccOAvSgI.s 			page 36


 1688              		.loc 1 319 2 view .LVU315
 1689 002a FFF7FEFF 		bl	ce_high
 1690              	.LVL121:
 320:Bsp/Src/NRF24.c **** }
 1691              		.loc 1 320 1 is_stmt 0 view .LVU316
 1692 002e 02B0     		add	sp, sp, #8
 1693              	.LCFI73:
 1694              		.cfi_def_cfa_offset 8
 1695              		@ sp needed
 1696 0030 10BD     		pop	{r4, pc}
 1697              		.cfi_endproc
 1698              	.LFE97:
 1700              		.section	.text.nrf24_stop_listen,"ax",%progbits
 1701              		.align	1
 1702              		.global	nrf24_stop_listen
 1703              		.syntax unified
 1704              		.thumb
 1705              		.thumb_func
 1707              	nrf24_stop_listen:
 1708              	.LFB98:
 321:Bsp/Src/NRF24.c **** 
 322:Bsp/Src/NRF24.c **** void nrf24_stop_listen(void){
 1709              		.loc 1 322 29 is_stmt 1 view -0
 1710              		.cfi_startproc
 1711              		@ args = 0, pretend = 0, frame = 8
 1712              		@ frame_needed = 0, uses_anonymous_args = 0
 1713 0000 10B5     		push	{r4, lr}
 1714              	.LCFI74:
 1715              		.cfi_def_cfa_offset 8
 1716              		.cfi_offset 4, -8
 1717              		.cfi_offset 14, -4
 1718 0002 82B0     		sub	sp, sp, #8
 1719              	.LCFI75:
 1720              		.cfi_def_cfa_offset 16
 323:Bsp/Src/NRF24.c **** 	uint8_t data = 0;
 1721              		.loc 1 323 2 view .LVU318
 1722              		.loc 1 323 10 is_stmt 0 view .LVU319
 1723 0004 0024     		movs	r4, #0
 1724 0006 8DF80740 		strb	r4, [sp, #7]
 324:Bsp/Src/NRF24.c **** 
 325:Bsp/Src/NRF24.c **** 	data = nrf24_r_reg(CONFIG, 1);
 1725              		.loc 1 325 2 is_stmt 1 view .LVU320
 1726              		.loc 1 325 9 is_stmt 0 view .LVU321
 1727 000a 0121     		movs	r1, #1
 1728 000c 2046     		mov	r0, r4
 1729 000e FFF7FEFF 		bl	nrf24_r_reg
 1730              	.LVL122:
 1731              		.loc 1 325 7 view .LVU322
 1732 0012 8DF80700 		strb	r0, [sp, #7]
 326:Bsp/Src/NRF24.c **** 
 327:Bsp/Src/NRF24.c **** 	data &= ~(1 << PRIM_RX);
 1733              		.loc 1 327 2 is_stmt 1 view .LVU323
 1734              		.loc 1 327 7 is_stmt 0 view .LVU324
 1735 0016 20F00100 		bic	r0, r0, #1
 1736 001a 8DF80700 		strb	r0, [sp, #7]
 328:Bsp/Src/NRF24.c **** 
 329:Bsp/Src/NRF24.c **** 	nrf24_w_reg(CONFIG, &data, 1);
ARM GAS  C:\Users\l1234\AppData\Local\Temp\ccOAvSgI.s 			page 37


 1737              		.loc 1 329 2 is_stmt 1 view .LVU325
 1738 001e 0122     		movs	r2, #1
 1739 0020 0DF10701 		add	r1, sp, #7
 1740 0024 2046     		mov	r0, r4
 1741 0026 FFF7FEFF 		bl	nrf24_w_reg
 1742              	.LVL123:
 330:Bsp/Src/NRF24.c **** }
 1743              		.loc 1 330 1 is_stmt 0 view .LVU326
 1744 002a 02B0     		add	sp, sp, #8
 1745              	.LCFI76:
 1746              		.cfi_def_cfa_offset 8
 1747              		@ sp needed
 1748 002c 10BD     		pop	{r4, pc}
 1749              		.cfi_endproc
 1750              	.LFE98:
 1752              		.section	.text.nrf24_dpl,"ax",%progbits
 1753              		.align	1
 1754              		.global	nrf24_dpl
 1755              		.syntax unified
 1756              		.thumb
 1757              		.thumb_func
 1759              	nrf24_dpl:
 1760              	.LVL124:
 1761              	.LFB99:
 331:Bsp/Src/NRF24.c **** 
 332:Bsp/Src/NRF24.c **** void nrf24_dpl(uint8_t en){
 1762              		.loc 1 332 27 is_stmt 1 view -0
 1763              		.cfi_startproc
 1764              		@ args = 0, pretend = 0, frame = 8
 1765              		@ frame_needed = 0, uses_anonymous_args = 0
 1766              		.loc 1 332 27 is_stmt 0 view .LVU328
 1767 0000 10B5     		push	{r4, lr}
 1768              	.LCFI77:
 1769              		.cfi_def_cfa_offset 8
 1770              		.cfi_offset 4, -8
 1771              		.cfi_offset 14, -4
 1772 0002 82B0     		sub	sp, sp, #8
 1773              	.LCFI78:
 1774              		.cfi_def_cfa_offset 16
 1775 0004 0446     		mov	r4, r0
 333:Bsp/Src/NRF24.c **** 	uint8_t feature = nrf24_r_reg(FEATURE, 1);
 1776              		.loc 1 333 2 is_stmt 1 view .LVU329
 1777              		.loc 1 333 20 is_stmt 0 view .LVU330
 1778 0006 0121     		movs	r1, #1
 1779 0008 1D20     		movs	r0, #29
 1780              	.LVL125:
 1781              		.loc 1 333 20 view .LVU331
 1782 000a FFF7FEFF 		bl	nrf24_r_reg
 1783              	.LVL126:
 1784              		.loc 1 333 10 view .LVU332
 1785 000e 8DF80700 		strb	r0, [sp, #7]
 334:Bsp/Src/NRF24.c **** 
 335:Bsp/Src/NRF24.c **** 	if(en == enable){
 1786              		.loc 1 335 2 is_stmt 1 view .LVU333
 1787              		.loc 1 335 4 is_stmt 0 view .LVU334
 1788 0012 012C     		cmp	r4, #1
 1789 0014 0BD0     		beq	.L114
ARM GAS  C:\Users\l1234\AppData\Local\Temp\ccOAvSgI.s 			page 38


 336:Bsp/Src/NRF24.c **** 		feature |= (1 << EN_DPL);
 337:Bsp/Src/NRF24.c **** 	}else{
 338:Bsp/Src/NRF24.c **** 		feature &= ~(1 << EN_DPL);
 1790              		.loc 1 338 3 is_stmt 1 view .LVU335
 1791              		.loc 1 338 11 is_stmt 0 view .LVU336
 1792 0016 20F00400 		bic	r0, r0, #4
 1793 001a 8DF80700 		strb	r0, [sp, #7]
 1794              	.L112:
 339:Bsp/Src/NRF24.c **** 	}
 340:Bsp/Src/NRF24.c **** 
 341:Bsp/Src/NRF24.c **** 	nrf24_w_reg(FEATURE, &feature, 1);
 1795              		.loc 1 341 2 is_stmt 1 view .LVU337
 1796 001e 0122     		movs	r2, #1
 1797 0020 0DF10701 		add	r1, sp, #7
 1798 0024 1D20     		movs	r0, #29
 1799 0026 FFF7FEFF 		bl	nrf24_w_reg
 1800              	.LVL127:
 342:Bsp/Src/NRF24.c **** }
 1801              		.loc 1 342 1 is_stmt 0 view .LVU338
 1802 002a 02B0     		add	sp, sp, #8
 1803              	.LCFI79:
 1804              		.cfi_remember_state
 1805              		.cfi_def_cfa_offset 8
 1806              		@ sp needed
 1807 002c 10BD     		pop	{r4, pc}
 1808              	.L114:
 1809              	.LCFI80:
 1810              		.cfi_restore_state
 336:Bsp/Src/NRF24.c **** 		feature |= (1 << EN_DPL);
 1811              		.loc 1 336 3 is_stmt 1 view .LVU339
 336:Bsp/Src/NRF24.c **** 		feature |= (1 << EN_DPL);
 1812              		.loc 1 336 11 is_stmt 0 view .LVU340
 1813 002e 40F00400 		orr	r0, r0, #4
 1814 0032 8DF80700 		strb	r0, [sp, #7]
 1815 0036 F2E7     		b	.L112
 1816              		.cfi_endproc
 1817              	.LFE99:
 1819              		.section	.text.nrf24_set_rx_dpl,"ax",%progbits
 1820              		.align	1
 1821              		.global	nrf24_set_rx_dpl
 1822              		.syntax unified
 1823              		.thumb
 1824              		.thumb_func
 1826              	nrf24_set_rx_dpl:
 1827              	.LVL128:
 1828              	.LFB100:
 343:Bsp/Src/NRF24.c **** 
 344:Bsp/Src/NRF24.c **** void nrf24_set_rx_dpl(uint8_t pipe, uint8_t en){
 1829              		.loc 1 344 48 is_stmt 1 view -0
 1830              		.cfi_startproc
 1831              		@ args = 0, pretend = 0, frame = 8
 1832              		@ frame_needed = 0, uses_anonymous_args = 0
 1833              		.loc 1 344 48 is_stmt 0 view .LVU342
 1834 0000 30B5     		push	{r4, r5, lr}
 1835              	.LCFI81:
 1836              		.cfi_def_cfa_offset 12
 1837              		.cfi_offset 4, -12
ARM GAS  C:\Users\l1234\AppData\Local\Temp\ccOAvSgI.s 			page 39


 1838              		.cfi_offset 5, -8
 1839              		.cfi_offset 14, -4
 1840 0002 83B0     		sub	sp, sp, #12
 1841              	.LCFI82:
 1842              		.cfi_def_cfa_offset 24
 1843 0004 0446     		mov	r4, r0
 1844 0006 0D46     		mov	r5, r1
 345:Bsp/Src/NRF24.c **** 
 346:Bsp/Src/NRF24.c **** 	uint8_t dynpd = nrf24_r_reg(DYNPD, 1);
 1845              		.loc 1 346 2 is_stmt 1 view .LVU343
 1846              		.loc 1 346 18 is_stmt 0 view .LVU344
 1847 0008 0121     		movs	r1, #1
 1848              	.LVL129:
 1849              		.loc 1 346 18 view .LVU345
 1850 000a 1C20     		movs	r0, #28
 1851              	.LVL130:
 1852              		.loc 1 346 18 view .LVU346
 1853 000c FFF7FEFF 		bl	nrf24_r_reg
 1854              	.LVL131:
 1855              		.loc 1 346 10 view .LVU347
 1856 0010 8DF80700 		strb	r0, [sp, #7]
 347:Bsp/Src/NRF24.c **** 
 348:Bsp/Src/NRF24.c **** 	if(pipe > 5){
 1857              		.loc 1 348 2 is_stmt 1 view .LVU348
 1858              		.loc 1 348 4 is_stmt 0 view .LVU349
 1859 0014 052C     		cmp	r4, #5
 1860 0016 00D9     		bls	.L116
 349:Bsp/Src/NRF24.c **** 		pipe = 5;
 1861              		.loc 1 349 8 view .LVU350
 1862 0018 0524     		movs	r4, #5
 1863              	.L116:
 1864              	.LVL132:
 350:Bsp/Src/NRF24.c **** 	}
 351:Bsp/Src/NRF24.c **** 
 352:Bsp/Src/NRF24.c **** 	if(en){
 1865              		.loc 1 352 2 is_stmt 1 view .LVU351
 1866              		.loc 1 352 4 is_stmt 0 view .LVU352
 1867 001a 65B1     		cbz	r5, .L117
 353:Bsp/Src/NRF24.c **** 		dynpd |= (1 << pipe);
 1868              		.loc 1 353 3 is_stmt 1 view .LVU353
 1869              		.loc 1 353 15 is_stmt 0 view .LVU354
 1870 001c 0123     		movs	r3, #1
 1871 001e A340     		lsls	r3, r3, r4
 1872              		.loc 1 353 9 view .LVU355
 1873 0020 1843     		orrs	r0, r0, r3
 1874 0022 8DF80700 		strb	r0, [sp, #7]
 1875              	.L118:
 354:Bsp/Src/NRF24.c **** 	}else{
 355:Bsp/Src/NRF24.c **** 		dynpd &= ~(1 << pipe);
 356:Bsp/Src/NRF24.c **** 	}
 357:Bsp/Src/NRF24.c **** 
 358:Bsp/Src/NRF24.c **** 	nrf24_w_reg(DYNPD, &dynpd, 1);
 1876              		.loc 1 358 2 is_stmt 1 view .LVU356
 1877 0026 0122     		movs	r2, #1
 1878 0028 0DF10701 		add	r1, sp, #7
 1879 002c 1C20     		movs	r0, #28
 1880 002e FFF7FEFF 		bl	nrf24_w_reg
ARM GAS  C:\Users\l1234\AppData\Local\Temp\ccOAvSgI.s 			page 40


 1881              	.LVL133:
 359:Bsp/Src/NRF24.c **** }
 1882              		.loc 1 359 1 is_stmt 0 view .LVU357
 1883 0032 03B0     		add	sp, sp, #12
 1884              	.LCFI83:
 1885              		.cfi_remember_state
 1886              		.cfi_def_cfa_offset 12
 1887              		@ sp needed
 1888 0034 30BD     		pop	{r4, r5, pc}
 1889              	.LVL134:
 1890              	.L117:
 1891              	.LCFI84:
 1892              		.cfi_restore_state
 355:Bsp/Src/NRF24.c **** 	}
 1893              		.loc 1 355 3 is_stmt 1 view .LVU358
 355:Bsp/Src/NRF24.c **** 	}
 1894              		.loc 1 355 16 is_stmt 0 view .LVU359
 1895 0036 0123     		movs	r3, #1
 1896 0038 A340     		lsls	r3, r3, r4
 355:Bsp/Src/NRF24.c **** 	}
 1897              		.loc 1 355 9 view .LVU360
 1898 003a DB43     		mvns	r3, r3
 1899 003c 5BB2     		sxtb	r3, r3
 1900 003e 1840     		ands	r0, r0, r3
 1901 0040 8DF80700 		strb	r0, [sp, #7]
 1902 0044 EFE7     		b	.L118
 1903              		.cfi_endproc
 1904              	.LFE100:
 1906              		.section	.text.nrf24_auto_ack,"ax",%progbits
 1907              		.align	1
 1908              		.global	nrf24_auto_ack
 1909              		.syntax unified
 1910              		.thumb
 1911              		.thumb_func
 1913              	nrf24_auto_ack:
 1914              	.LVL135:
 1915              	.LFB101:
 360:Bsp/Src/NRF24.c **** 
 361:Bsp/Src/NRF24.c **** void nrf24_auto_ack(uint8_t pipe, uint8_t ack){
 1916              		.loc 1 361 47 is_stmt 1 view -0
 1917              		.cfi_startproc
 1918              		@ args = 0, pretend = 0, frame = 8
 1919              		@ frame_needed = 0, uses_anonymous_args = 0
 1920              		.loc 1 361 47 is_stmt 0 view .LVU362
 1921 0000 30B5     		push	{r4, r5, lr}
 1922              	.LCFI85:
 1923              		.cfi_def_cfa_offset 12
 1924              		.cfi_offset 4, -12
 1925              		.cfi_offset 5, -8
 1926              		.cfi_offset 14, -4
 1927 0002 83B0     		sub	sp, sp, #12
 1928              	.LCFI86:
 1929              		.cfi_def_cfa_offset 24
 1930 0004 0446     		mov	r4, r0
 1931 0006 0D46     		mov	r5, r1
 362:Bsp/Src/NRF24.c **** 
 363:Bsp/Src/NRF24.c **** 	if(pipe > 5){
ARM GAS  C:\Users\l1234\AppData\Local\Temp\ccOAvSgI.s 			page 41


 1932              		.loc 1 363 2 is_stmt 1 view .LVU363
 1933              		.loc 1 363 4 is_stmt 0 view .LVU364
 1934 0008 0528     		cmp	r0, #5
 1935 000a 00D9     		bls	.L122
 364:Bsp/Src/NRF24.c **** 		pipe = 5;
 1936              		.loc 1 364 8 view .LVU365
 1937 000c 0524     		movs	r4, #5
 1938              	.L122:
 1939              	.LVL136:
 365:Bsp/Src/NRF24.c **** 	}
 366:Bsp/Src/NRF24.c **** 
 367:Bsp/Src/NRF24.c **** 	uint8_t enaa = nrf24_r_reg(EN_AA, 1);
 1940              		.loc 1 367 2 is_stmt 1 view .LVU366
 1941              		.loc 1 367 17 is_stmt 0 view .LVU367
 1942 000e 0121     		movs	r1, #1
 1943              	.LVL137:
 1944              		.loc 1 367 17 view .LVU368
 1945 0010 0846     		mov	r0, r1
 1946 0012 FFF7FEFF 		bl	nrf24_r_reg
 1947              	.LVL138:
 1948              		.loc 1 367 10 view .LVU369
 1949 0016 8DF80700 		strb	r0, [sp, #7]
 368:Bsp/Src/NRF24.c **** 
 369:Bsp/Src/NRF24.c **** 	if(ack){
 1950              		.loc 1 369 2 is_stmt 1 view .LVU370
 1951              		.loc 1 369 4 is_stmt 0 view .LVU371
 1952 001a 65B1     		cbz	r5, .L123
 370:Bsp/Src/NRF24.c **** 		enaa |= (1 << pipe);
 1953              		.loc 1 370 3 is_stmt 1 view .LVU372
 1954              		.loc 1 370 14 is_stmt 0 view .LVU373
 1955 001c 0123     		movs	r3, #1
 1956 001e A340     		lsls	r3, r3, r4
 1957              		.loc 1 370 8 view .LVU374
 1958 0020 1843     		orrs	r0, r0, r3
 1959 0022 8DF80700 		strb	r0, [sp, #7]
 1960              	.L124:
 371:Bsp/Src/NRF24.c **** 	}else{
 372:Bsp/Src/NRF24.c **** 		enaa &= ~(1 << pipe);
 373:Bsp/Src/NRF24.c **** 	}
 374:Bsp/Src/NRF24.c **** 
 375:Bsp/Src/NRF24.c **** 	nrf24_w_reg(EN_AA, &enaa, 1);
 1961              		.loc 1 375 2 is_stmt 1 view .LVU375
 1962 0026 0122     		movs	r2, #1
 1963 0028 0DF10701 		add	r1, sp, #7
 1964 002c 1046     		mov	r0, r2
 1965 002e FFF7FEFF 		bl	nrf24_w_reg
 1966              	.LVL139:
 376:Bsp/Src/NRF24.c **** }
 1967              		.loc 1 376 1 is_stmt 0 view .LVU376
 1968 0032 03B0     		add	sp, sp, #12
 1969              	.LCFI87:
 1970              		.cfi_remember_state
 1971              		.cfi_def_cfa_offset 12
 1972              		@ sp needed
 1973 0034 30BD     		pop	{r4, r5, pc}
 1974              	.LVL140:
 1975              	.L123:
ARM GAS  C:\Users\l1234\AppData\Local\Temp\ccOAvSgI.s 			page 42


 1976              	.LCFI88:
 1977              		.cfi_restore_state
 372:Bsp/Src/NRF24.c **** 	}
 1978              		.loc 1 372 3 is_stmt 1 view .LVU377
 372:Bsp/Src/NRF24.c **** 	}
 1979              		.loc 1 372 15 is_stmt 0 view .LVU378
 1980 0036 0123     		movs	r3, #1
 1981 0038 A340     		lsls	r3, r3, r4
 372:Bsp/Src/NRF24.c **** 	}
 1982              		.loc 1 372 8 view .LVU379
 1983 003a DB43     		mvns	r3, r3
 1984 003c 5BB2     		sxtb	r3, r3
 1985 003e 1840     		ands	r0, r0, r3
 1986 0040 8DF80700 		strb	r0, [sp, #7]
 1987 0044 EFE7     		b	.L124
 1988              		.cfi_endproc
 1989              	.LFE101:
 1991              		.section	.text.nrf24_auto_ack_all,"ax",%progbits
 1992              		.align	1
 1993              		.global	nrf24_auto_ack_all
 1994              		.syntax unified
 1995              		.thumb
 1996              		.thumb_func
 1998              	nrf24_auto_ack_all:
 1999              	.LVL141:
 2000              	.LFB102:
 377:Bsp/Src/NRF24.c **** 
 378:Bsp/Src/NRF24.c **** void nrf24_auto_ack_all(uint8_t ack){
 2001              		.loc 1 378 37 is_stmt 1 view -0
 2002              		.cfi_startproc
 2003              		@ args = 0, pretend = 0, frame = 8
 2004              		@ frame_needed = 0, uses_anonymous_args = 0
 2005              		.loc 1 378 37 is_stmt 0 view .LVU381
 2006 0000 10B5     		push	{r4, lr}
 2007              	.LCFI89:
 2008              		.cfi_def_cfa_offset 8
 2009              		.cfi_offset 4, -8
 2010              		.cfi_offset 14, -4
 2011 0002 82B0     		sub	sp, sp, #8
 2012              	.LCFI90:
 2013              		.cfi_def_cfa_offset 16
 2014 0004 0446     		mov	r4, r0
 379:Bsp/Src/NRF24.c **** 	uint8_t enaa = nrf24_r_reg(EN_AA, 1);
 2015              		.loc 1 379 2 is_stmt 1 view .LVU382
 2016              		.loc 1 379 17 is_stmt 0 view .LVU383
 2017 0006 0121     		movs	r1, #1
 2018 0008 0846     		mov	r0, r1
 2019              	.LVL142:
 2020              		.loc 1 379 17 view .LVU384
 2021 000a FFF7FEFF 		bl	nrf24_r_reg
 2022              	.LVL143:
 2023              		.loc 1 379 10 view .LVU385
 2024 000e 8DF80700 		strb	r0, [sp, #7]
 380:Bsp/Src/NRF24.c **** 
 381:Bsp/Src/NRF24.c **** 	if(ack){
 2025              		.loc 1 381 2 is_stmt 1 view .LVU386
 2026              		.loc 1 381 4 is_stmt 0 view .LVU387
ARM GAS  C:\Users\l1234\AppData\Local\Temp\ccOAvSgI.s 			page 43


 2027 0012 54B1     		cbz	r4, .L128
 382:Bsp/Src/NRF24.c **** 		enaa = 63;
 2028              		.loc 1 382 3 is_stmt 1 view .LVU388
 2029              		.loc 1 382 8 is_stmt 0 view .LVU389
 2030 0014 3F23     		movs	r3, #63
 2031 0016 8DF80730 		strb	r3, [sp, #7]
 2032              	.L129:
 383:Bsp/Src/NRF24.c **** 	}else{
 384:Bsp/Src/NRF24.c **** 		enaa = 0;
 385:Bsp/Src/NRF24.c **** 	}
 386:Bsp/Src/NRF24.c **** 
 387:Bsp/Src/NRF24.c **** 	nrf24_w_reg(EN_AA, &enaa, 1);
 2033              		.loc 1 387 2 is_stmt 1 view .LVU390
 2034 001a 0122     		movs	r2, #1
 2035 001c 0DF10701 		add	r1, sp, #7
 2036 0020 1046     		mov	r0, r2
 2037 0022 FFF7FEFF 		bl	nrf24_w_reg
 2038              	.LVL144:
 388:Bsp/Src/NRF24.c **** }
 2039              		.loc 1 388 1 is_stmt 0 view .LVU391
 2040 0026 02B0     		add	sp, sp, #8
 2041              	.LCFI91:
 2042              		.cfi_remember_state
 2043              		.cfi_def_cfa_offset 8
 2044              		@ sp needed
 2045 0028 10BD     		pop	{r4, pc}
 2046              	.L128:
 2047              	.LCFI92:
 2048              		.cfi_restore_state
 384:Bsp/Src/NRF24.c **** 	}
 2049              		.loc 1 384 3 is_stmt 1 view .LVU392
 384:Bsp/Src/NRF24.c **** 	}
 2050              		.loc 1 384 8 is_stmt 0 view .LVU393
 2051 002a 0023     		movs	r3, #0
 2052 002c 8DF80730 		strb	r3, [sp, #7]
 2053 0030 F3E7     		b	.L129
 2054              		.cfi_endproc
 2055              	.LFE102:
 2057              		.section	.text.nrf24_en_ack_pld,"ax",%progbits
 2058              		.align	1
 2059              		.global	nrf24_en_ack_pld
 2060              		.syntax unified
 2061              		.thumb
 2062              		.thumb_func
 2064              	nrf24_en_ack_pld:
 2065              	.LVL145:
 2066              	.LFB103:
 389:Bsp/Src/NRF24.c **** 
 390:Bsp/Src/NRF24.c **** void nrf24_en_ack_pld(uint8_t en){
 2067              		.loc 1 390 34 is_stmt 1 view -0
 2068              		.cfi_startproc
 2069              		@ args = 0, pretend = 0, frame = 8
 2070              		@ frame_needed = 0, uses_anonymous_args = 0
 2071              		.loc 1 390 34 is_stmt 0 view .LVU395
 2072 0000 10B5     		push	{r4, lr}
 2073              	.LCFI93:
 2074              		.cfi_def_cfa_offset 8
ARM GAS  C:\Users\l1234\AppData\Local\Temp\ccOAvSgI.s 			page 44


 2075              		.cfi_offset 4, -8
 2076              		.cfi_offset 14, -4
 2077 0002 82B0     		sub	sp, sp, #8
 2078              	.LCFI94:
 2079              		.cfi_def_cfa_offset 16
 2080 0004 0446     		mov	r4, r0
 391:Bsp/Src/NRF24.c **** 	uint8_t feature = nrf24_r_reg(FEATURE, 1);
 2081              		.loc 1 391 2 is_stmt 1 view .LVU396
 2082              		.loc 1 391 20 is_stmt 0 view .LVU397
 2083 0006 0121     		movs	r1, #1
 2084 0008 1D20     		movs	r0, #29
 2085              	.LVL146:
 2086              		.loc 1 391 20 view .LVU398
 2087 000a FFF7FEFF 		bl	nrf24_r_reg
 2088              	.LVL147:
 2089              		.loc 1 391 10 view .LVU399
 2090 000e 8DF80700 		strb	r0, [sp, #7]
 392:Bsp/Src/NRF24.c **** 
 393:Bsp/Src/NRF24.c **** 	if(en){
 2091              		.loc 1 393 2 is_stmt 1 view .LVU400
 2092              		.loc 1 393 4 is_stmt 0 view .LVU401
 2093 0012 5CB1     		cbz	r4, .L132
 394:Bsp/Src/NRF24.c **** 		feature |= (1 << EN_ACK_PAY);
 2094              		.loc 1 394 3 is_stmt 1 view .LVU402
 2095              		.loc 1 394 11 is_stmt 0 view .LVU403
 2096 0014 40F00200 		orr	r0, r0, #2
 2097 0018 8DF80700 		strb	r0, [sp, #7]
 2098              	.L133:
 395:Bsp/Src/NRF24.c **** 	}else{
 396:Bsp/Src/NRF24.c **** 		feature &= ~(1 << EN_ACK_PAY);
 397:Bsp/Src/NRF24.c **** 	}
 398:Bsp/Src/NRF24.c **** 
 399:Bsp/Src/NRF24.c **** 	nrf24_w_reg(FEATURE, &feature, 1);
 2099              		.loc 1 399 2 is_stmt 1 view .LVU404
 2100 001c 0122     		movs	r2, #1
 2101 001e 0DF10701 		add	r1, sp, #7
 2102 0022 1D20     		movs	r0, #29
 2103 0024 FFF7FEFF 		bl	nrf24_w_reg
 2104              	.LVL148:
 400:Bsp/Src/NRF24.c **** }
 2105              		.loc 1 400 1 is_stmt 0 view .LVU405
 2106 0028 02B0     		add	sp, sp, #8
 2107              	.LCFI95:
 2108              		.cfi_remember_state
 2109              		.cfi_def_cfa_offset 8
 2110              		@ sp needed
 2111 002a 10BD     		pop	{r4, pc}
 2112              	.L132:
 2113              	.LCFI96:
 2114              		.cfi_restore_state
 396:Bsp/Src/NRF24.c **** 	}
 2115              		.loc 1 396 3 is_stmt 1 view .LVU406
 396:Bsp/Src/NRF24.c **** 	}
 2116              		.loc 1 396 11 is_stmt 0 view .LVU407
 2117 002c 20F00200 		bic	r0, r0, #2
 2118 0030 8DF80700 		strb	r0, [sp, #7]
 2119 0034 F2E7     		b	.L133
ARM GAS  C:\Users\l1234\AppData\Local\Temp\ccOAvSgI.s 			page 45


 2120              		.cfi_endproc
 2121              	.LFE103:
 2123              		.section	.text.nrf24_en_dyn_ack,"ax",%progbits
 2124              		.align	1
 2125              		.global	nrf24_en_dyn_ack
 2126              		.syntax unified
 2127              		.thumb
 2128              		.thumb_func
 2130              	nrf24_en_dyn_ack:
 2131              	.LVL149:
 2132              	.LFB104:
 401:Bsp/Src/NRF24.c **** 
 402:Bsp/Src/NRF24.c **** void nrf24_en_dyn_ack(uint8_t en){
 2133              		.loc 1 402 34 is_stmt 1 view -0
 2134              		.cfi_startproc
 2135              		@ args = 0, pretend = 0, frame = 8
 2136              		@ frame_needed = 0, uses_anonymous_args = 0
 2137              		.loc 1 402 34 is_stmt 0 view .LVU409
 2138 0000 10B5     		push	{r4, lr}
 2139              	.LCFI97:
 2140              		.cfi_def_cfa_offset 8
 2141              		.cfi_offset 4, -8
 2142              		.cfi_offset 14, -4
 2143 0002 82B0     		sub	sp, sp, #8
 2144              	.LCFI98:
 2145              		.cfi_def_cfa_offset 16
 2146 0004 0446     		mov	r4, r0
 403:Bsp/Src/NRF24.c **** 	uint8_t feature = nrf24_r_reg(FEATURE, 1);
 2147              		.loc 1 403 2 is_stmt 1 view .LVU410
 2148              		.loc 1 403 20 is_stmt 0 view .LVU411
 2149 0006 0121     		movs	r1, #1
 2150 0008 1D20     		movs	r0, #29
 2151              	.LVL150:
 2152              		.loc 1 403 20 view .LVU412
 2153 000a FFF7FEFF 		bl	nrf24_r_reg
 2154              	.LVL151:
 2155              		.loc 1 403 10 view .LVU413
 2156 000e 8DF80700 		strb	r0, [sp, #7]
 404:Bsp/Src/NRF24.c **** 
 405:Bsp/Src/NRF24.c **** 	if(en){
 2157              		.loc 1 405 2 is_stmt 1 view .LVU414
 2158              		.loc 1 405 4 is_stmt 0 view .LVU415
 2159 0012 5CB1     		cbz	r4, .L136
 406:Bsp/Src/NRF24.c **** 		feature |= (1 << EN_DYN_ACK);
 2160              		.loc 1 406 3 is_stmt 1 view .LVU416
 2161              		.loc 1 406 11 is_stmt 0 view .LVU417
 2162 0014 40F00100 		orr	r0, r0, #1
 2163 0018 8DF80700 		strb	r0, [sp, #7]
 2164              	.L137:
 407:Bsp/Src/NRF24.c **** 	}else{
 408:Bsp/Src/NRF24.c **** 		feature &= ~(1 << EN_DYN_ACK);
 409:Bsp/Src/NRF24.c **** 	}
 410:Bsp/Src/NRF24.c **** 
 411:Bsp/Src/NRF24.c **** 	nrf24_w_reg(FEATURE, &feature, 1);
 2165              		.loc 1 411 2 is_stmt 1 view .LVU418
 2166 001c 0122     		movs	r2, #1
 2167 001e 0DF10701 		add	r1, sp, #7
ARM GAS  C:\Users\l1234\AppData\Local\Temp\ccOAvSgI.s 			page 46


 2168 0022 1D20     		movs	r0, #29
 2169 0024 FFF7FEFF 		bl	nrf24_w_reg
 2170              	.LVL152:
 412:Bsp/Src/NRF24.c **** }
 2171              		.loc 1 412 1 is_stmt 0 view .LVU419
 2172 0028 02B0     		add	sp, sp, #8
 2173              	.LCFI99:
 2174              		.cfi_remember_state
 2175              		.cfi_def_cfa_offset 8
 2176              		@ sp needed
 2177 002a 10BD     		pop	{r4, pc}
 2178              	.L136:
 2179              	.LCFI100:
 2180              		.cfi_restore_state
 408:Bsp/Src/NRF24.c **** 	}
 2181              		.loc 1 408 3 is_stmt 1 view .LVU420
 408:Bsp/Src/NRF24.c **** 	}
 2182              		.loc 1 408 11 is_stmt 0 view .LVU421
 2183 002c 20F00100 		bic	r0, r0, #1
 2184 0030 8DF80700 		strb	r0, [sp, #7]
 2185 0034 F2E7     		b	.L137
 2186              		.cfi_endproc
 2187              	.LFE104:
 2189              		.section	.text.nrf24_auto_retr_delay,"ax",%progbits
 2190              		.align	1
 2191              		.global	nrf24_auto_retr_delay
 2192              		.syntax unified
 2193              		.thumb
 2194              		.thumb_func
 2196              	nrf24_auto_retr_delay:
 2197              	.LVL153:
 2198              	.LFB105:
 413:Bsp/Src/NRF24.c **** 
 414:Bsp/Src/NRF24.c **** void nrf24_auto_retr_delay(uint8_t delay){
 2199              		.loc 1 414 42 is_stmt 1 view -0
 2200              		.cfi_startproc
 2201              		@ args = 0, pretend = 0, frame = 8
 2202              		@ frame_needed = 0, uses_anonymous_args = 0
 2203              		.loc 1 414 42 is_stmt 0 view .LVU423
 2204 0000 10B5     		push	{r4, lr}
 2205              	.LCFI101:
 2206              		.cfi_def_cfa_offset 8
 2207              		.cfi_offset 4, -8
 2208              		.cfi_offset 14, -4
 2209 0002 82B0     		sub	sp, sp, #8
 2210              	.LCFI102:
 2211              		.cfi_def_cfa_offset 16
 2212 0004 0446     		mov	r4, r0
 415:Bsp/Src/NRF24.c **** 	uint8_t data = nrf24_r_reg(SETUP_RETR, 1);
 2213              		.loc 1 415 2 is_stmt 1 view .LVU424
 2214              		.loc 1 415 17 is_stmt 0 view .LVU425
 2215 0006 0121     		movs	r1, #1
 2216 0008 0420     		movs	r0, #4
 2217              	.LVL154:
 2218              		.loc 1 415 17 view .LVU426
 2219 000a FFF7FEFF 		bl	nrf24_r_reg
 2220              	.LVL155:
ARM GAS  C:\Users\l1234\AppData\Local\Temp\ccOAvSgI.s 			page 47


 2221              		.loc 1 415 10 view .LVU427
 2222 000e 8DF80700 		strb	r0, [sp, #7]
 416:Bsp/Src/NRF24.c **** 
 417:Bsp/Src/NRF24.c **** 	data &= 15;
 2223              		.loc 1 417 2 is_stmt 1 view .LVU428
 2224              		.loc 1 417 7 is_stmt 0 view .LVU429
 2225 0012 00F00F03 		and	r3, r0, #15
 2226 0016 8DF80730 		strb	r3, [sp, #7]
 418:Bsp/Src/NRF24.c **** 
 419:Bsp/Src/NRF24.c **** 	data |= (delay << ARD);
 2227              		.loc 1 419 2 is_stmt 1 view .LVU430
 2228              		.loc 1 419 7 is_stmt 0 view .LVU431
 2229 001a 43EA0413 		orr	r3, r3, r4, lsl #4
 2230 001e 8DF80730 		strb	r3, [sp, #7]
 420:Bsp/Src/NRF24.c **** 
 421:Bsp/Src/NRF24.c **** 	nrf24_w_reg(SETUP_RETR, &data, 1);
 2231              		.loc 1 421 2 is_stmt 1 view .LVU432
 2232 0022 0122     		movs	r2, #1
 2233 0024 0DF10701 		add	r1, sp, #7
 2234 0028 0420     		movs	r0, #4
 2235 002a FFF7FEFF 		bl	nrf24_w_reg
 2236              	.LVL156:
 422:Bsp/Src/NRF24.c **** }
 2237              		.loc 1 422 1 is_stmt 0 view .LVU433
 2238 002e 02B0     		add	sp, sp, #8
 2239              	.LCFI103:
 2240              		.cfi_def_cfa_offset 8
 2241              		@ sp needed
 2242 0030 10BD     		pop	{r4, pc}
 2243              		.cfi_endproc
 2244              	.LFE105:
 2246              		.section	.text.nrf24_auto_retr_limit,"ax",%progbits
 2247              		.align	1
 2248              		.global	nrf24_auto_retr_limit
 2249              		.syntax unified
 2250              		.thumb
 2251              		.thumb_func
 2253              	nrf24_auto_retr_limit:
 2254              	.LVL157:
 2255              	.LFB106:
 423:Bsp/Src/NRF24.c **** 
 424:Bsp/Src/NRF24.c **** void nrf24_auto_retr_limit(uint8_t limit){
 2256              		.loc 1 424 42 is_stmt 1 view -0
 2257              		.cfi_startproc
 2258              		@ args = 0, pretend = 0, frame = 8
 2259              		@ frame_needed = 0, uses_anonymous_args = 0
 2260              		.loc 1 424 42 is_stmt 0 view .LVU435
 2261 0000 10B5     		push	{r4, lr}
 2262              	.LCFI104:
 2263              		.cfi_def_cfa_offset 8
 2264              		.cfi_offset 4, -8
 2265              		.cfi_offset 14, -4
 2266 0002 82B0     		sub	sp, sp, #8
 2267              	.LCFI105:
 2268              		.cfi_def_cfa_offset 16
 2269 0004 0446     		mov	r4, r0
 425:Bsp/Src/NRF24.c **** 	uint8_t data = nrf24_r_reg(SETUP_RETR, 1);
ARM GAS  C:\Users\l1234\AppData\Local\Temp\ccOAvSgI.s 			page 48


 2270              		.loc 1 425 2 is_stmt 1 view .LVU436
 2271              		.loc 1 425 17 is_stmt 0 view .LVU437
 2272 0006 0121     		movs	r1, #1
 2273 0008 0420     		movs	r0, #4
 2274              	.LVL158:
 2275              		.loc 1 425 17 view .LVU438
 2276 000a FFF7FEFF 		bl	nrf24_r_reg
 2277              	.LVL159:
 2278              		.loc 1 425 10 view .LVU439
 2279 000e 8DF80700 		strb	r0, [sp, #7]
 426:Bsp/Src/NRF24.c **** 
 427:Bsp/Src/NRF24.c **** 	data &= 240;
 2280              		.loc 1 427 2 is_stmt 1 view .LVU440
 2281              		.loc 1 427 7 is_stmt 0 view .LVU441
 2282 0012 00F0F003 		and	r3, r0, #240
 2283 0016 8DF80730 		strb	r3, [sp, #7]
 428:Bsp/Src/NRF24.c **** 
 429:Bsp/Src/NRF24.c **** 	data |= (limit << ARC);
 2284              		.loc 1 429 2 is_stmt 1 view .LVU442
 2285              		.loc 1 429 7 is_stmt 0 view .LVU443
 2286 001a 2343     		orrs	r3, r3, r4
 2287 001c 8DF80730 		strb	r3, [sp, #7]
 430:Bsp/Src/NRF24.c **** 
 431:Bsp/Src/NRF24.c **** 	nrf24_w_reg(SETUP_RETR, &data, 1);
 2288              		.loc 1 431 2 is_stmt 1 view .LVU444
 2289 0020 0122     		movs	r2, #1
 2290 0022 0DF10701 		add	r1, sp, #7
 2291 0026 0420     		movs	r0, #4
 2292 0028 FFF7FEFF 		bl	nrf24_w_reg
 2293              	.LVL160:
 432:Bsp/Src/NRF24.c **** }
 2294              		.loc 1 432 1 is_stmt 0 view .LVU445
 2295 002c 02B0     		add	sp, sp, #8
 2296              	.LCFI106:
 2297              		.cfi_def_cfa_offset 8
 2298              		@ sp needed
 2299 002e 10BD     		pop	{r4, pc}
 2300              		.cfi_endproc
 2301              	.LFE106:
 2303              		.section	.text.nrf24_type_to_uint8_t,"ax",%progbits
 2304              		.align	1
 2305              		.global	nrf24_type_to_uint8_t
 2306              		.syntax unified
 2307              		.thumb
 2308              		.thumb_func
 2310              	nrf24_type_to_uint8_t:
 2311              	.LVL161:
 2312              	.LFB107:
 433:Bsp/Src/NRF24.c **** 
 434:Bsp/Src/NRF24.c **** void nrf24_type_to_uint8_t(size_t in, uint8_t* out, uint16_t size){
 2313              		.loc 1 434 67 is_stmt 1 view -0
 2314              		.cfi_startproc
 2315              		@ args = 0, pretend = 0, frame = 0
 2316              		@ frame_needed = 0, uses_anonymous_args = 0
 435:Bsp/Src/NRF24.c **** 	for(uint16_t i = 0; i < size; i++){
 2317              		.loc 1 435 2 view .LVU447
 2318              	.LBB2:
ARM GAS  C:\Users\l1234\AppData\Local\Temp\ccOAvSgI.s 			page 49


 2319              		.loc 1 435 6 view .LVU448
 2320              		.loc 1 435 15 is_stmt 0 view .LVU449
 2321 0000 4FF0000C 		mov	ip, #0
 2322              	.LVL162:
 2323              		.loc 1 435 24 is_stmt 1 view .LVU450
 2324 0004 9445     		cmp	ip, r2
 2325 0006 12D2     		bcs	.L149
 2326              	.LBE2:
 434:Bsp/Src/NRF24.c **** 	for(uint16_t i = 0; i < size; i++){
 2327              		.loc 1 434 67 is_stmt 0 view .LVU451
 2328 0008 00B5     		push	{lr}
 2329              	.LCFI107:
 2330              		.cfi_def_cfa_offset 4
 2331              		.cfi_offset 14, -4
 2332              	.L145:
 2333              	.LBB3:
 436:Bsp/Src/NRF24.c **** 		out[i] = (((in & (255 << (i*8)))) >> (i*8));
 2334              		.loc 1 436 3 is_stmt 1 discriminator 3 view .LVU452
 2335              		.loc 1 436 30 is_stmt 0 discriminator 3 view .LVU453
 2336 000a 4FEACC0E 		lsl	lr, ip, #3
 2337              		.loc 1 436 25 discriminator 3 view .LVU454
 2338 000e FF23     		movs	r3, #255
 2339 0010 03FA0EF3 		lsl	r3, r3, lr
 2340              		.loc 1 436 18 discriminator 3 view .LVU455
 2341 0014 0340     		ands	r3, r3, r0
 2342              		.loc 1 436 37 discriminator 3 view .LVU456
 2343 0016 23FA0EF3 		lsr	r3, r3, lr
 2344              		.loc 1 436 10 discriminator 3 view .LVU457
 2345 001a 01F80C30 		strb	r3, [r1, ip]
 435:Bsp/Src/NRF24.c **** 	for(uint16_t i = 0; i < size; i++){
 2346              		.loc 1 435 33 is_stmt 1 discriminator 3 view .LVU458
 2347 001e 0CF1010C 		add	ip, ip, #1
 2348              	.LVL163:
 435:Bsp/Src/NRF24.c **** 	for(uint16_t i = 0; i < size; i++){
 2349              		.loc 1 435 33 is_stmt 0 discriminator 3 view .LVU459
 2350 0022 1FFA8CFC 		uxth	ip, ip
 2351              	.LVL164:
 435:Bsp/Src/NRF24.c **** 	for(uint16_t i = 0; i < size; i++){
 2352              		.loc 1 435 24 is_stmt 1 discriminator 3 view .LVU460
 2353 0026 9445     		cmp	ip, r2
 2354 0028 EFD3     		bcc	.L145
 2355              	.LBE3:
 437:Bsp/Src/NRF24.c **** 	}
 438:Bsp/Src/NRF24.c **** }
 2356              		.loc 1 438 1 is_stmt 0 view .LVU461
 2357 002a 5DF804FB 		ldr	pc, [sp], #4
 2358              	.L149:
 2359              	.LCFI108:
 2360              		.cfi_def_cfa_offset 0
 2361              		.cfi_restore 14
 2362              		.loc 1 438 1 view .LVU462
 2363 002e 7047     		bx	lr
 2364              		.cfi_endproc
 2365              	.LFE107:
 2367              		.section	.text.nrf24_uint8_t_to_type,"ax",%progbits
 2368              		.align	1
 2369              		.global	nrf24_uint8_t_to_type
ARM GAS  C:\Users\l1234\AppData\Local\Temp\ccOAvSgI.s 			page 50


 2370              		.syntax unified
 2371              		.thumb
 2372              		.thumb_func
 2374              	nrf24_uint8_t_to_type:
 2375              	.LVL165:
 2376              	.LFB108:
 439:Bsp/Src/NRF24.c **** 
 440:Bsp/Src/NRF24.c **** size_t nrf24_uint8_t_to_type(uint8_t* in, uint16_t size){
 2377              		.loc 1 440 57 is_stmt 1 view -0
 2378              		.cfi_startproc
 2379              		@ args = 0, pretend = 0, frame = 0
 2380              		@ frame_needed = 0, uses_anonymous_args = 0
 2381              		.loc 1 440 57 is_stmt 0 view .LVU464
 2382 0000 00B5     		push	{lr}
 2383              	.LCFI109:
 2384              		.cfi_def_cfa_offset 4
 2385              		.cfi_offset 14, -4
 2386 0002 8646     		mov	lr, r0
 441:Bsp/Src/NRF24.c **** 	size_t out = 0;
 2387              		.loc 1 441 2 is_stmt 1 view .LVU465
 2388              	.LVL166:
 442:Bsp/Src/NRF24.c **** 
 443:Bsp/Src/NRF24.c **** 	for(uint16_t i = 0; i < size; i++){
 2389              		.loc 1 443 2 view .LVU466
 2390              	.LBB4:
 2391              		.loc 1 443 6 view .LVU467
 2392              		.loc 1 443 15 is_stmt 0 view .LVU468
 2393 0004 0023     		movs	r3, #0
 2394              	.LBE4:
 441:Bsp/Src/NRF24.c **** 	size_t out = 0;
 2395              		.loc 1 441 9 view .LVU469
 2396 0006 1846     		mov	r0, r3
 2397              	.LVL167:
 2398              	.LBB5:
 2399              		.loc 1 443 2 view .LVU470
 2400 0008 08E0     		b	.L151
 2401              	.LVL168:
 2402              	.L152:
 444:Bsp/Src/NRF24.c **** 		out |= (in[i] << (8*i));
 2403              		.loc 1 444 3 is_stmt 1 discriminator 3 view .LVU471
 2404              		.loc 1 444 13 is_stmt 0 discriminator 3 view .LVU472
 2405 000a 1EF80320 		ldrb	r2, [lr, r3]	@ zero_extendqisi2
 2406              		.loc 1 444 22 discriminator 3 view .LVU473
 2407 000e 4FEAC30C 		lsl	ip, r3, #3
 2408              		.loc 1 444 17 discriminator 3 view .LVU474
 2409 0012 02FA0CF2 		lsl	r2, r2, ip
 2410              		.loc 1 444 7 discriminator 3 view .LVU475
 2411 0016 1043     		orrs	r0, r0, r2
 2412              	.LVL169:
 443:Bsp/Src/NRF24.c **** 		out |= (in[i] << (8*i));
 2413              		.loc 1 443 33 is_stmt 1 discriminator 3 view .LVU476
 2414 0018 0133     		adds	r3, r3, #1
 2415              	.LVL170:
 443:Bsp/Src/NRF24.c **** 		out |= (in[i] << (8*i));
 2416              		.loc 1 443 33 is_stmt 0 discriminator 3 view .LVU477
 2417 001a 9BB2     		uxth	r3, r3
 2418              	.LVL171:
ARM GAS  C:\Users\l1234\AppData\Local\Temp\ccOAvSgI.s 			page 51


 2419              	.L151:
 443:Bsp/Src/NRF24.c **** 		out |= (in[i] << (8*i));
 2420              		.loc 1 443 24 is_stmt 1 discriminator 1 view .LVU478
 2421 001c 8B42     		cmp	r3, r1
 2422 001e F4D3     		bcc	.L152
 2423              	.LBE5:
 445:Bsp/Src/NRF24.c **** 	}
 446:Bsp/Src/NRF24.c **** 
 447:Bsp/Src/NRF24.c **** 	return out;
 2424              		.loc 1 447 2 view .LVU479
 448:Bsp/Src/NRF24.c **** }
 2425              		.loc 1 448 1 is_stmt 0 view .LVU480
 2426 0020 5DF804FB 		ldr	pc, [sp], #4
 2427              		.cfi_endproc
 2428              	.LFE108:
 2430              		.section	.text.nrf24_transmit,"ax",%progbits
 2431              		.align	1
 2432              		.global	nrf24_transmit
 2433              		.syntax unified
 2434              		.thumb
 2435              		.thumb_func
 2437              	nrf24_transmit:
 2438              	.LVL172:
 2439              	.LFB109:
 449:Bsp/Src/NRF24.c **** 
 450:Bsp/Src/NRF24.c **** 
 451:Bsp/Src/NRF24.c **** uint8_t nrf24_transmit(uint8_t *data, uint8_t size){
 2440              		.loc 1 451 52 is_stmt 1 view -0
 2441              		.cfi_startproc
 2442              		@ args = 0, pretend = 0, frame = 8
 2443              		@ frame_needed = 0, uses_anonymous_args = 0
 2444              		.loc 1 451 52 is_stmt 0 view .LVU482
 2445 0000 70B5     		push	{r4, r5, r6, lr}
 2446              	.LCFI110:
 2447              		.cfi_def_cfa_offset 16
 2448              		.cfi_offset 4, -16
 2449              		.cfi_offset 5, -12
 2450              		.cfi_offset 6, -8
 2451              		.cfi_offset 14, -4
 2452 0002 82B0     		sub	sp, sp, #8
 2453              	.LCFI111:
 2454              		.cfi_def_cfa_offset 24
 2455 0004 0446     		mov	r4, r0
 2456 0006 0D46     		mov	r5, r1
 452:Bsp/Src/NRF24.c **** 
 453:Bsp/Src/NRF24.c **** 	ce_low();
 2457              		.loc 1 453 2 is_stmt 1 view .LVU483
 2458 0008 FFF7FEFF 		bl	ce_low
 2459              	.LVL173:
 454:Bsp/Src/NRF24.c **** 
 455:Bsp/Src/NRF24.c **** 	uint8_t cmd = W_TX_PAYLOAD;
 2460              		.loc 1 455 2 view .LVU484
 2461              		.loc 1 455 10 is_stmt 0 view .LVU485
 2462 000c A023     		movs	r3, #160
 2463 000e 8DF80730 		strb	r3, [sp, #7]
 456:Bsp/Src/NRF24.c **** 
 457:Bsp/Src/NRF24.c **** 	csn_low();
ARM GAS  C:\Users\l1234\AppData\Local\Temp\ccOAvSgI.s 			page 52


 2464              		.loc 1 457 2 is_stmt 1 view .LVU486
 2465 0012 FFF7FEFF 		bl	csn_low
 2466              	.LVL174:
 458:Bsp/Src/NRF24.c **** 	HAL_SPI_Transmit(&hspiX, &cmd, 1, spi_w_timeout);
 2467              		.loc 1 458 2 view .LVU487
 2468 0016 134E     		ldr	r6, .L158
 2469 0018 4FF47A73 		mov	r3, #1000
 2470 001c 0122     		movs	r2, #1
 2471 001e 0DF10701 		add	r1, sp, #7
 2472 0022 3046     		mov	r0, r6
 2473 0024 FFF7FEFF 		bl	HAL_SPI_Transmit
 2474              	.LVL175:
 459:Bsp/Src/NRF24.c **** 	HAL_SPI_Transmit(&hspiX, data, size, spi_w_timeout);
 2475              		.loc 1 459 2 view .LVU488
 2476 0028 4FF47A73 		mov	r3, #1000
 2477 002c 2A46     		mov	r2, r5
 2478 002e 2146     		mov	r1, r4
 2479 0030 3046     		mov	r0, r6
 2480 0032 FFF7FEFF 		bl	HAL_SPI_Transmit
 2481              	.LVL176:
 460:Bsp/Src/NRF24.c **** 	csn_high();
 2482              		.loc 1 460 2 view .LVU489
 2483 0036 FFF7FEFF 		bl	csn_high
 2484              	.LVL177:
 461:Bsp/Src/NRF24.c **** 
 462:Bsp/Src/NRF24.c **** 	ce_high();
 2485              		.loc 1 462 2 view .LVU490
 2486 003a FFF7FEFF 		bl	ce_high
 2487              	.LVL178:
 463:Bsp/Src/NRF24.c **** 	HAL_Delay(1);
 2488              		.loc 1 463 2 view .LVU491
 2489 003e 0120     		movs	r0, #1
 2490 0040 FFF7FEFF 		bl	HAL_Delay
 2491              	.LVL179:
 464:Bsp/Src/NRF24.c **** 	ce_low();
 2492              		.loc 1 464 2 view .LVU492
 2493 0044 FFF7FEFF 		bl	ce_low
 2494              	.LVL180:
 465:Bsp/Src/NRF24.c **** 
 466:Bsp/Src/NRF24.c **** 	if(nrf24_r_status() & (1 << MAX_RT)){
 2495              		.loc 1 466 2 view .LVU493
 2496              		.loc 1 466 5 is_stmt 0 view .LVU494
 2497 0048 FFF7FEFF 		bl	nrf24_r_status
 2498              	.LVL181:
 2499              		.loc 1 466 4 view .LVU495
 2500 004c 10F01000 		ands	r0, r0, #16
 2501 0050 01D1     		bne	.L157
 2502              	.L155:
 467:Bsp/Src/NRF24.c **** 		nrf24_clear_max_rt();
 468:Bsp/Src/NRF24.c **** 		nrf24_flush_tx();
 469:Bsp/Src/NRF24.c **** 		return 1;
 470:Bsp/Src/NRF24.c **** 	}
 471:Bsp/Src/NRF24.c **** 
 472:Bsp/Src/NRF24.c **** 	return 0;
 473:Bsp/Src/NRF24.c **** }
 2503              		.loc 1 473 1 view .LVU496
 2504 0052 02B0     		add	sp, sp, #8
ARM GAS  C:\Users\l1234\AppData\Local\Temp\ccOAvSgI.s 			page 53


 2505              	.LCFI112:
 2506              		.cfi_remember_state
 2507              		.cfi_def_cfa_offset 16
 2508              		@ sp needed
 2509 0054 70BD     		pop	{r4, r5, r6, pc}
 2510              	.LVL182:
 2511              	.L157:
 2512              	.LCFI113:
 2513              		.cfi_restore_state
 467:Bsp/Src/NRF24.c **** 		nrf24_clear_max_rt();
 2514              		.loc 1 467 3 is_stmt 1 view .LVU497
 2515 0056 FFF7FEFF 		bl	nrf24_clear_max_rt
 2516              	.LVL183:
 468:Bsp/Src/NRF24.c **** 		return 1;
 2517              		.loc 1 468 3 view .LVU498
 2518 005a FFF7FEFF 		bl	nrf24_flush_tx
 2519              	.LVL184:
 469:Bsp/Src/NRF24.c **** 	}
 2520              		.loc 1 469 3 view .LVU499
 469:Bsp/Src/NRF24.c **** 	}
 2521              		.loc 1 469 10 is_stmt 0 view .LVU500
 2522 005e 0120     		movs	r0, #1
 2523 0060 F7E7     		b	.L155
 2524              	.L159:
 2525 0062 00BF     		.align	2
 2526              	.L158:
 2527 0064 00000000 		.word	hspi2
 2528              		.cfi_endproc
 2529              	.LFE109:
 2531              		.section	.text.nrf24_transmit_no_ack,"ax",%progbits
 2532              		.align	1
 2533              		.global	nrf24_transmit_no_ack
 2534              		.syntax unified
 2535              		.thumb
 2536              		.thumb_func
 2538              	nrf24_transmit_no_ack:
 2539              	.LVL185:
 2540              	.LFB110:
 474:Bsp/Src/NRF24.c **** 
 475:Bsp/Src/NRF24.c **** void nrf24_transmit_no_ack(uint8_t *data, uint8_t size){
 2541              		.loc 1 475 56 is_stmt 1 view -0
 2542              		.cfi_startproc
 2543              		@ args = 0, pretend = 0, frame = 8
 2544              		@ frame_needed = 0, uses_anonymous_args = 0
 2545              		.loc 1 475 56 is_stmt 0 view .LVU502
 2546 0000 70B5     		push	{r4, r5, r6, lr}
 2547              	.LCFI114:
 2548              		.cfi_def_cfa_offset 16
 2549              		.cfi_offset 4, -16
 2550              		.cfi_offset 5, -12
 2551              		.cfi_offset 6, -8
 2552              		.cfi_offset 14, -4
 2553 0002 82B0     		sub	sp, sp, #8
 2554              	.LCFI115:
 2555              		.cfi_def_cfa_offset 24
 2556 0004 0446     		mov	r4, r0
 2557 0006 0D46     		mov	r5, r1
ARM GAS  C:\Users\l1234\AppData\Local\Temp\ccOAvSgI.s 			page 54


 476:Bsp/Src/NRF24.c **** 
 477:Bsp/Src/NRF24.c **** 	ce_low();
 2558              		.loc 1 477 2 is_stmt 1 view .LVU503
 2559 0008 FFF7FEFF 		bl	ce_low
 2560              	.LVL186:
 478:Bsp/Src/NRF24.c **** 
 479:Bsp/Src/NRF24.c **** 	uint8_t cmd = W_TX_PAYLOAD_NOACK;
 2561              		.loc 1 479 2 view .LVU504
 2562              		.loc 1 479 10 is_stmt 0 view .LVU505
 2563 000c B023     		movs	r3, #176
 2564 000e 8DF80730 		strb	r3, [sp, #7]
 480:Bsp/Src/NRF24.c **** 
 481:Bsp/Src/NRF24.c **** 	csn_low();
 2565              		.loc 1 481 2 is_stmt 1 view .LVU506
 2566 0012 FFF7FEFF 		bl	csn_low
 2567              	.LVL187:
 482:Bsp/Src/NRF24.c **** 	HAL_SPI_Transmit(&hspiX, &cmd, 1, spi_w_timeout);
 2568              		.loc 1 482 2 view .LVU507
 2569 0016 0D4E     		ldr	r6, .L162
 2570 0018 4FF47A73 		mov	r3, #1000
 2571 001c 0122     		movs	r2, #1
 2572 001e 0DF10701 		add	r1, sp, #7
 2573 0022 3046     		mov	r0, r6
 2574 0024 FFF7FEFF 		bl	HAL_SPI_Transmit
 2575              	.LVL188:
 483:Bsp/Src/NRF24.c **** 	HAL_SPI_Transmit(&hspiX, data, size, spi_w_timeout);
 2576              		.loc 1 483 2 view .LVU508
 2577 0028 4FF47A73 		mov	r3, #1000
 2578 002c 2A46     		mov	r2, r5
 2579 002e 2146     		mov	r1, r4
 2580 0030 3046     		mov	r0, r6
 2581 0032 FFF7FEFF 		bl	HAL_SPI_Transmit
 2582              	.LVL189:
 484:Bsp/Src/NRF24.c **** 	csn_high();
 2583              		.loc 1 484 2 view .LVU509
 2584 0036 FFF7FEFF 		bl	csn_high
 2585              	.LVL190:
 485:Bsp/Src/NRF24.c **** 
 486:Bsp/Src/NRF24.c **** 	ce_high();
 2586              		.loc 1 486 2 view .LVU510
 2587 003a FFF7FEFF 		bl	ce_high
 2588              	.LVL191:
 487:Bsp/Src/NRF24.c **** 	HAL_Delay(1);
 2589              		.loc 1 487 2 view .LVU511
 2590 003e 0120     		movs	r0, #1
 2591 0040 FFF7FEFF 		bl	HAL_Delay
 2592              	.LVL192:
 488:Bsp/Src/NRF24.c **** 	ce_low();
 2593              		.loc 1 488 2 view .LVU512
 2594 0044 FFF7FEFF 		bl	ce_low
 2595              	.LVL193:
 489:Bsp/Src/NRF24.c **** }
 2596              		.loc 1 489 1 is_stmt 0 view .LVU513
 2597 0048 02B0     		add	sp, sp, #8
 2598              	.LCFI116:
 2599              		.cfi_def_cfa_offset 16
 2600              		@ sp needed
ARM GAS  C:\Users\l1234\AppData\Local\Temp\ccOAvSgI.s 			page 55


 2601 004a 70BD     		pop	{r4, r5, r6, pc}
 2602              	.LVL194:
 2603              	.L163:
 2604              		.loc 1 489 1 view .LVU514
 2605              		.align	2
 2606              	.L162:
 2607 004c 00000000 		.word	hspi2
 2608              		.cfi_endproc
 2609              	.LFE110:
 2611              		.section	.text.nrf24_transmit_rx_ack_pld,"ax",%progbits
 2612              		.align	1
 2613              		.global	nrf24_transmit_rx_ack_pld
 2614              		.syntax unified
 2615              		.thumb
 2616              		.thumb_func
 2618              	nrf24_transmit_rx_ack_pld:
 2619              	.LVL195:
 2620              	.LFB111:
 490:Bsp/Src/NRF24.c **** 
 491:Bsp/Src/NRF24.c **** void nrf24_transmit_rx_ack_pld(uint8_t pipe, uint8_t *data, uint8_t size){
 2621              		.loc 1 491 74 is_stmt 1 view -0
 2622              		.cfi_startproc
 2623              		@ args = 0, pretend = 0, frame = 8
 2624              		@ frame_needed = 0, uses_anonymous_args = 0
 2625              		.loc 1 491 74 is_stmt 0 view .LVU516
 2626 0000 70B5     		push	{r4, r5, r6, lr}
 2627              	.LCFI117:
 2628              		.cfi_def_cfa_offset 16
 2629              		.cfi_offset 4, -16
 2630              		.cfi_offset 5, -12
 2631              		.cfi_offset 6, -8
 2632              		.cfi_offset 14, -4
 2633 0002 82B0     		sub	sp, sp, #8
 2634              	.LCFI118:
 2635              		.cfi_def_cfa_offset 24
 2636 0004 0C46     		mov	r4, r1
 2637 0006 1546     		mov	r5, r2
 492:Bsp/Src/NRF24.c **** 
 493:Bsp/Src/NRF24.c **** 	if(pipe > 5){
 2638              		.loc 1 493 2 is_stmt 1 view .LVU517
 2639              		.loc 1 493 4 is_stmt 0 view .LVU518
 2640 0008 0528     		cmp	r0, #5
 2641 000a 00D9     		bls	.L165
 494:Bsp/Src/NRF24.c **** 		pipe = 5;
 2642              		.loc 1 494 8 view .LVU519
 2643 000c 0520     		movs	r0, #5
 2644              	.LVL196:
 2645              	.L165:
 495:Bsp/Src/NRF24.c **** 	}
 496:Bsp/Src/NRF24.c **** 
 497:Bsp/Src/NRF24.c **** 	uint8_t cmd = (W_ACK_PAYLOAD | pipe);
 2646              		.loc 1 497 2 is_stmt 1 view .LVU520
 2647              		.loc 1 497 10 is_stmt 0 view .LVU521
 2648 000e 60F05700 		orn	r0, r0, #87
 2649              	.LVL197:
 2650              		.loc 1 497 10 view .LVU522
 2651 0012 8DF80700 		strb	r0, [sp, #7]
ARM GAS  C:\Users\l1234\AppData\Local\Temp\ccOAvSgI.s 			page 56


 498:Bsp/Src/NRF24.c **** 
 499:Bsp/Src/NRF24.c **** 	csn_low();
 2652              		.loc 1 499 2 is_stmt 1 view .LVU523
 2653 0016 FFF7FEFF 		bl	csn_low
 2654              	.LVL198:
 500:Bsp/Src/NRF24.c **** 	HAL_SPI_Transmit(&hspiX, &cmd, 1, spi_w_timeout);
 2655              		.loc 1 500 2 view .LVU524
 2656 001a 0A4E     		ldr	r6, .L168
 2657 001c 4FF47A73 		mov	r3, #1000
 2658 0020 0122     		movs	r2, #1
 2659 0022 0DF10701 		add	r1, sp, #7
 2660 0026 3046     		mov	r0, r6
 2661 0028 FFF7FEFF 		bl	HAL_SPI_Transmit
 2662              	.LVL199:
 501:Bsp/Src/NRF24.c **** 	HAL_SPI_Transmit(&hspiX, data, size, spi_w_timeout);
 2663              		.loc 1 501 2 view .LVU525
 2664 002c 4FF47A73 		mov	r3, #1000
 2665 0030 2A46     		mov	r2, r5
 2666 0032 2146     		mov	r1, r4
 2667 0034 3046     		mov	r0, r6
 2668 0036 FFF7FEFF 		bl	HAL_SPI_Transmit
 2669              	.LVL200:
 502:Bsp/Src/NRF24.c **** 	csn_high();
 2670              		.loc 1 502 2 view .LVU526
 2671 003a FFF7FEFF 		bl	csn_high
 2672              	.LVL201:
 503:Bsp/Src/NRF24.c **** 
 504:Bsp/Src/NRF24.c **** }
 2673              		.loc 1 504 1 is_stmt 0 view .LVU527
 2674 003e 02B0     		add	sp, sp, #8
 2675              	.LCFI119:
 2676              		.cfi_def_cfa_offset 16
 2677              		@ sp needed
 2678 0040 70BD     		pop	{r4, r5, r6, pc}
 2679              	.LVL202:
 2680              	.L169:
 2681              		.loc 1 504 1 view .LVU528
 2682 0042 00BF     		.align	2
 2683              	.L168:
 2684 0044 00000000 		.word	hspi2
 2685              		.cfi_endproc
 2686              	.LFE111:
 2688              		.section	.text.nrf24_carrier_detect,"ax",%progbits
 2689              		.align	1
 2690              		.global	nrf24_carrier_detect
 2691              		.syntax unified
 2692              		.thumb
 2693              		.thumb_func
 2695              	nrf24_carrier_detect:
 2696              	.LFB112:
 505:Bsp/Src/NRF24.c **** 
 506:Bsp/Src/NRF24.c **** uint8_t nrf24_carrier_detect(void){
 2697              		.loc 1 506 35 is_stmt 1 view -0
 2698              		.cfi_startproc
 2699              		@ args = 0, pretend = 0, frame = 0
 2700              		@ frame_needed = 0, uses_anonymous_args = 0
 2701 0000 08B5     		push	{r3, lr}
ARM GAS  C:\Users\l1234\AppData\Local\Temp\ccOAvSgI.s 			page 57


 2702              	.LCFI120:
 2703              		.cfi_def_cfa_offset 8
 2704              		.cfi_offset 3, -8
 2705              		.cfi_offset 14, -4
 507:Bsp/Src/NRF24.c **** 	return nrf24_r_reg(RPD, 1);
 2706              		.loc 1 507 2 view .LVU530
 2707              		.loc 1 507 9 is_stmt 0 view .LVU531
 2708 0002 0121     		movs	r1, #1
 2709 0004 0920     		movs	r0, #9
 2710 0006 FFF7FEFF 		bl	nrf24_r_reg
 2711              	.LVL203:
 508:Bsp/Src/NRF24.c **** }
 2712              		.loc 1 508 1 view .LVU532
 2713 000a 08BD     		pop	{r3, pc}
 2714              		.cfi_endproc
 2715              	.LFE112:
 2717              		.section	.text.nrf24_data_available,"ax",%progbits
 2718              		.align	1
 2719              		.global	nrf24_data_available
 2720              		.syntax unified
 2721              		.thumb
 2722              		.thumb_func
 2724              	nrf24_data_available:
 2725              	.LFB113:
 509:Bsp/Src/NRF24.c **** 
 510:Bsp/Src/NRF24.c **** uint8_t nrf24_data_available(void){
 2726              		.loc 1 510 35 is_stmt 1 view -0
 2727              		.cfi_startproc
 2728              		@ args = 0, pretend = 0, frame = 0
 2729              		@ frame_needed = 0, uses_anonymous_args = 0
 2730 0000 08B5     		push	{r3, lr}
 2731              	.LCFI121:
 2732              		.cfi_def_cfa_offset 8
 2733              		.cfi_offset 3, -8
 2734              		.cfi_offset 14, -4
 511:Bsp/Src/NRF24.c **** 
 512:Bsp/Src/NRF24.c ****  	uint8_t reg_dt = nrf24_r_reg(FIFO_STATUS, 1);
 2735              		.loc 1 512 3 view .LVU534
 2736              		.loc 1 512 20 is_stmt 0 view .LVU535
 2737 0002 0121     		movs	r1, #1
 2738 0004 1720     		movs	r0, #23
 2739 0006 FFF7FEFF 		bl	nrf24_r_reg
 2740              	.LVL204:
 513:Bsp/Src/NRF24.c **** 
 514:Bsp/Src/NRF24.c **** 	if(!(reg_dt & (1 << RX_EMPTY))){
 2741              		.loc 1 514 2 is_stmt 1 view .LVU536
 2742              		.loc 1 514 4 is_stmt 0 view .LVU537
 2743 000a 10F0010F 		tst	r0, #1
 2744 000e 01D0     		beq	.L174
 515:Bsp/Src/NRF24.c **** 		return 1;
 516:Bsp/Src/NRF24.c **** 	}
 517:Bsp/Src/NRF24.c **** 
 518:Bsp/Src/NRF24.c **** 	return 0;
 2745              		.loc 1 518 9 view .LVU538
 2746 0010 0020     		movs	r0, #0
 2747              	.LVL205:
 2748              	.L173:
ARM GAS  C:\Users\l1234\AppData\Local\Temp\ccOAvSgI.s 			page 58


 519:Bsp/Src/NRF24.c **** }
 2749              		.loc 1 519 1 view .LVU539
 2750 0012 08BD     		pop	{r3, pc}
 2751              	.LVL206:
 2752              	.L174:
 515:Bsp/Src/NRF24.c **** 		return 1;
 2753              		.loc 1 515 10 view .LVU540
 2754 0014 0120     		movs	r0, #1
 2755              	.LVL207:
 515:Bsp/Src/NRF24.c **** 		return 1;
 2756              		.loc 1 515 10 view .LVU541
 2757 0016 FCE7     		b	.L173
 2758              		.cfi_endproc
 2759              	.LFE113:
 2761              		.section	.text.nrf24_receive,"ax",%progbits
 2762              		.align	1
 2763              		.global	nrf24_receive
 2764              		.syntax unified
 2765              		.thumb
 2766              		.thumb_func
 2768              	nrf24_receive:
 2769              	.LVL208:
 2770              	.LFB114:
 520:Bsp/Src/NRF24.c **** 
 521:Bsp/Src/NRF24.c **** void nrf24_receive(uint8_t *data, uint8_t size){
 2771              		.loc 1 521 48 is_stmt 1 view -0
 2772              		.cfi_startproc
 2773              		@ args = 0, pretend = 0, frame = 8
 2774              		@ frame_needed = 0, uses_anonymous_args = 0
 2775              		.loc 1 521 48 is_stmt 0 view .LVU543
 2776 0000 70B5     		push	{r4, r5, r6, lr}
 2777              	.LCFI122:
 2778              		.cfi_def_cfa_offset 16
 2779              		.cfi_offset 4, -16
 2780              		.cfi_offset 5, -12
 2781              		.cfi_offset 6, -8
 2782              		.cfi_offset 14, -4
 2783 0002 82B0     		sub	sp, sp, #8
 2784              	.LCFI123:
 2785              		.cfi_def_cfa_offset 24
 2786 0004 0446     		mov	r4, r0
 2787 0006 0D46     		mov	r5, r1
 522:Bsp/Src/NRF24.c **** 	uint8_t cmd = R_RX_PAYLOAD;
 2788              		.loc 1 522 2 is_stmt 1 view .LVU544
 2789              		.loc 1 522 10 is_stmt 0 view .LVU545
 2790 0008 6123     		movs	r3, #97
 2791 000a 8DF80730 		strb	r3, [sp, #7]
 523:Bsp/Src/NRF24.c **** 
 524:Bsp/Src/NRF24.c **** 	csn_low();
 2792              		.loc 1 524 2 is_stmt 1 view .LVU546
 2793 000e FFF7FEFF 		bl	csn_low
 2794              	.LVL209:
 525:Bsp/Src/NRF24.c **** 	HAL_SPI_Transmit(&hspiX, &cmd, 1, spi_w_timeout);
 2795              		.loc 1 525 2 view .LVU547
 2796 0012 0B4E     		ldr	r6, .L178
 2797 0014 4FF47A73 		mov	r3, #1000
 2798 0018 0122     		movs	r2, #1
ARM GAS  C:\Users\l1234\AppData\Local\Temp\ccOAvSgI.s 			page 59


 2799 001a 0DF10701 		add	r1, sp, #7
 2800 001e 3046     		mov	r0, r6
 2801 0020 FFF7FEFF 		bl	HAL_SPI_Transmit
 2802              	.LVL210:
 526:Bsp/Src/NRF24.c **** 	HAL_SPI_Receive(&hspiX, data, size, spi_r_timeout);
 2803              		.loc 1 526 2 view .LVU548
 2804 0024 4FF47A73 		mov	r3, #1000
 2805 0028 2A46     		mov	r2, r5
 2806 002a 2146     		mov	r1, r4
 2807 002c 3046     		mov	r0, r6
 2808 002e FFF7FEFF 		bl	HAL_SPI_Receive
 2809              	.LVL211:
 527:Bsp/Src/NRF24.c **** 	csn_high();
 2810              		.loc 1 527 2 view .LVU549
 2811 0032 FFF7FEFF 		bl	csn_high
 2812              	.LVL212:
 528:Bsp/Src/NRF24.c **** 
 529:Bsp/Src/NRF24.c **** 	nrf24_clear_rx_dr();
 2813              		.loc 1 529 2 view .LVU550
 2814 0036 FFF7FEFF 		bl	nrf24_clear_rx_dr
 2815              	.LVL213:
 530:Bsp/Src/NRF24.c **** }
 2816              		.loc 1 530 1 is_stmt 0 view .LVU551
 2817 003a 02B0     		add	sp, sp, #8
 2818              	.LCFI124:
 2819              		.cfi_def_cfa_offset 16
 2820              		@ sp needed
 2821 003c 70BD     		pop	{r4, r5, r6, pc}
 2822              	.LVL214:
 2823              	.L179:
 2824              		.loc 1 530 1 view .LVU552
 2825 003e 00BF     		.align	2
 2826              	.L178:
 2827 0040 00000000 		.word	hspi2
 2828              		.cfi_endproc
 2829              	.LFE114:
 2831              		.section	.text.nrf24_defaults,"ax",%progbits
 2832              		.align	1
 2833              		.global	nrf24_defaults
 2834              		.syntax unified
 2835              		.thumb
 2836              		.thumb_func
 2838              	nrf24_defaults:
 2839              	.LFB115:
 531:Bsp/Src/NRF24.c **** 
 532:Bsp/Src/NRF24.c **** void nrf24_defaults(void){
 2840              		.loc 1 532 26 is_stmt 1 view -0
 2841              		.cfi_startproc
 2842              		@ args = 0, pretend = 0, frame = 0
 2843              		@ frame_needed = 0, uses_anonymous_args = 0
 2844 0000 10B5     		push	{r4, lr}
 2845              	.LCFI125:
 2846              		.cfi_def_cfa_offset 8
 2847              		.cfi_offset 4, -8
 2848              		.cfi_offset 14, -4
 533:Bsp/Src/NRF24.c **** 	ce_low();
 2849              		.loc 1 533 2 view .LVU554
ARM GAS  C:\Users\l1234\AppData\Local\Temp\ccOAvSgI.s 			page 60


 2850 0002 FFF7FEFF 		bl	ce_low
 2851              	.LVL215:
 534:Bsp/Src/NRF24.c **** 
 535:Bsp/Src/NRF24.c **** 	nrf24_pwr_dwn();
 2852              		.loc 1 535 2 view .LVU555
 2853 0006 FFF7FEFF 		bl	nrf24_pwr_dwn
 2854              	.LVL216:
 536:Bsp/Src/NRF24.c **** 	nrf24_tx_pwr(3);
 2855              		.loc 1 536 2 view .LVU556
 2856 000a 0320     		movs	r0, #3
 2857 000c FFF7FEFF 		bl	nrf24_tx_pwr
 2858              	.LVL217:
 537:Bsp/Src/NRF24.c **** 	nrf24_data_rate(_1mbps);
 2859              		.loc 1 537 2 view .LVU557
 2860 0010 0020     		movs	r0, #0
 2861 0012 FFF7FEFF 		bl	nrf24_data_rate
 2862              	.LVL218:
 538:Bsp/Src/NRF24.c **** 	nrf24_set_channel(2);
 2863              		.loc 1 538 2 view .LVU558
 2864 0016 0220     		movs	r0, #2
 2865 0018 FFF7FEFF 		bl	nrf24_set_channel
 2866              	.LVL219:
 539:Bsp/Src/NRF24.c **** 	nrf24_set_crc(no_crc, _1byte);
 2867              		.loc 1 539 2 view .LVU559
 2868 001c 0021     		movs	r1, #0
 2869 001e 0846     		mov	r0, r1
 2870 0020 FFF7FEFF 		bl	nrf24_set_crc
 2871              	.LVL220:
 540:Bsp/Src/NRF24.c **** 	nrf24_set_addr_width(5);
 2872              		.loc 1 540 2 view .LVU560
 2873 0024 0520     		movs	r0, #5
 2874 0026 FFF7FEFF 		bl	nrf24_set_addr_width
 2875              	.LVL221:
 541:Bsp/Src/NRF24.c **** 	nrf24_flush_tx();
 2876              		.loc 1 541 2 view .LVU561
 2877 002a FFF7FEFF 		bl	nrf24_flush_tx
 2878              	.LVL222:
 542:Bsp/Src/NRF24.c **** 	nrf24_flush_rx();
 2879              		.loc 1 542 2 view .LVU562
 2880 002e FFF7FEFF 		bl	nrf24_flush_rx
 2881              	.LVL223:
 543:Bsp/Src/NRF24.c **** 	nrf24_clear_rx_dr();
 2882              		.loc 1 543 2 view .LVU563
 2883 0032 FFF7FEFF 		bl	nrf24_clear_rx_dr
 2884              	.LVL224:
 544:Bsp/Src/NRF24.c **** 	nrf24_clear_tx_ds();
 2885              		.loc 1 544 2 view .LVU564
 2886 0036 FFF7FEFF 		bl	nrf24_clear_tx_ds
 2887              	.LVL225:
 545:Bsp/Src/NRF24.c **** 	nrf24_clear_max_rt();
 2888              		.loc 1 545 2 view .LVU565
 2889 003a FFF7FEFF 		bl	nrf24_clear_max_rt
 2890              	.LVL226:
 546:Bsp/Src/NRF24.c **** 	nrf24_stop_listen();
 2891              		.loc 1 546 2 view .LVU566
 2892 003e FFF7FEFF 		bl	nrf24_stop_listen
 2893              	.LVL227:
ARM GAS  C:\Users\l1234\AppData\Local\Temp\ccOAvSgI.s 			page 61


 547:Bsp/Src/NRF24.c **** 	nrf24_dpl(disable);
 2894              		.loc 1 547 2 view .LVU567
 2895 0042 0020     		movs	r0, #0
 2896 0044 FFF7FEFF 		bl	nrf24_dpl
 2897              	.LVL228:
 548:Bsp/Src/NRF24.c **** 	nrf24_en_ack_pld(disable);
 2898              		.loc 1 548 2 view .LVU568
 2899 0048 0020     		movs	r0, #0
 2900 004a FFF7FEFF 		bl	nrf24_en_ack_pld
 2901              	.LVL229:
 549:Bsp/Src/NRF24.c **** 	nrf24_en_dyn_ack(disable);
 2902              		.loc 1 549 2 view .LVU569
 2903 004e 0020     		movs	r0, #0
 2904 0050 FFF7FEFF 		bl	nrf24_en_dyn_ack
 2905              	.LVL230:
 550:Bsp/Src/NRF24.c **** 	nrf24_auto_retr_delay(0);
 2906              		.loc 1 550 2 view .LVU570
 2907 0054 0020     		movs	r0, #0
 2908 0056 FFF7FEFF 		bl	nrf24_auto_retr_delay
 2909              	.LVL231:
 551:Bsp/Src/NRF24.c **** 	nrf24_auto_retr_limit(3);
 2910              		.loc 1 551 2 view .LVU571
 2911 005a 0320     		movs	r0, #3
 2912 005c FFF7FEFF 		bl	nrf24_auto_retr_limit
 2913              	.LVL232:
 552:Bsp/Src/NRF24.c **** 
 553:Bsp/Src/NRF24.c **** 
 554:Bsp/Src/NRF24.c **** 	for(uint8_t i = 0; i < 5; i++){
 2914              		.loc 1 554 2 view .LVU572
 2915              	.LBB6:
 2916              		.loc 1 554 6 view .LVU573
 2917              		.loc 1 554 14 is_stmt 0 view .LVU574
 2918 0060 0024     		movs	r4, #0
 2919              		.loc 1 554 2 view .LVU575
 2920 0062 10E0     		b	.L181
 2921              	.LVL233:
 2922              	.L182:
 555:Bsp/Src/NRF24.c **** 		nrf24_pipe_pld_size(i, 0);
 2923              		.loc 1 555 3 is_stmt 1 discriminator 3 view .LVU576
 2924 0064 0021     		movs	r1, #0
 2925 0066 2046     		mov	r0, r4
 2926 0068 FFF7FEFF 		bl	nrf24_pipe_pld_size
 2927              	.LVL234:
 556:Bsp/Src/NRF24.c **** 		nrf24_cls_rx_pipe(i);
 2928              		.loc 1 556 3 discriminator 3 view .LVU577
 2929 006c 2046     		mov	r0, r4
 2930 006e FFF7FEFF 		bl	nrf24_cls_rx_pipe
 2931              	.LVL235:
 557:Bsp/Src/NRF24.c **** 		nrf24_set_rx_dpl(i, disable);
 2932              		.loc 1 557 3 discriminator 3 view .LVU578
 2933 0072 0021     		movs	r1, #0
 2934 0074 2046     		mov	r0, r4
 2935 0076 FFF7FEFF 		bl	nrf24_set_rx_dpl
 2936              	.LVL236:
 558:Bsp/Src/NRF24.c **** 		nrf24_auto_ack(i, enable);
 2937              		.loc 1 558 3 discriminator 3 view .LVU579
 2938 007a 0121     		movs	r1, #1
ARM GAS  C:\Users\l1234\AppData\Local\Temp\ccOAvSgI.s 			page 62


 2939 007c 2046     		mov	r0, r4
 2940 007e FFF7FEFF 		bl	nrf24_auto_ack
 2941              	.LVL237:
 554:Bsp/Src/NRF24.c **** 		nrf24_pipe_pld_size(i, 0);
 2942              		.loc 1 554 29 discriminator 3 view .LVU580
 2943 0082 0134     		adds	r4, r4, #1
 2944              	.LVL238:
 554:Bsp/Src/NRF24.c **** 		nrf24_pipe_pld_size(i, 0);
 2945              		.loc 1 554 29 is_stmt 0 discriminator 3 view .LVU581
 2946 0084 E4B2     		uxtb	r4, r4
 2947              	.LVL239:
 2948              	.L181:
 554:Bsp/Src/NRF24.c **** 		nrf24_pipe_pld_size(i, 0);
 2949              		.loc 1 554 23 is_stmt 1 discriminator 1 view .LVU582
 2950 0086 042C     		cmp	r4, #4
 2951 0088 ECD9     		bls	.L182
 2952              	.LBE6:
 559:Bsp/Src/NRF24.c **** 	}
 560:Bsp/Src/NRF24.c **** 
 561:Bsp/Src/NRF24.c **** 	ce_high();
 2953              		.loc 1 561 2 view .LVU583
 2954 008a FFF7FEFF 		bl	ce_high
 2955              	.LVL240:
 562:Bsp/Src/NRF24.c **** }
 2956              		.loc 1 562 1 is_stmt 0 view .LVU584
 2957 008e 10BD     		pop	{r4, pc}
 2958              		.loc 1 562 1 view .LVU585
 2959              		.cfi_endproc
 2960              	.LFE115:
 2962              		.section	.text.nrf24_init,"ax",%progbits
 2963              		.align	1
 2964              		.global	nrf24_init
 2965              		.syntax unified
 2966              		.thumb
 2967              		.thumb_func
 2969              	nrf24_init:
 2970              	.LFB116:
 563:Bsp/Src/NRF24.c **** 
 564:Bsp/Src/NRF24.c **** void nrf24_init(void){
 2971              		.loc 1 564 22 is_stmt 1 view -0
 2972              		.cfi_startproc
 2973              		@ args = 0, pretend = 0, frame = 0
 2974              		@ frame_needed = 0, uses_anonymous_args = 0
 2975 0000 08B5     		push	{r3, lr}
 2976              	.LCFI126:
 2977              		.cfi_def_cfa_offset 8
 2978              		.cfi_offset 3, -8
 2979              		.cfi_offset 14, -4
 565:Bsp/Src/NRF24.c **** 
 566:Bsp/Src/NRF24.c **** 	nrf24_pwr_up();
 2980              		.loc 1 566 2 view .LVU587
 2981 0002 FFF7FEFF 		bl	nrf24_pwr_up
 2982              	.LVL241:
 567:Bsp/Src/NRF24.c **** 
 568:Bsp/Src/NRF24.c **** 	nrf24_flush_tx();
 2983              		.loc 1 568 2 view .LVU588
 2984 0006 FFF7FEFF 		bl	nrf24_flush_tx
ARM GAS  C:\Users\l1234\AppData\Local\Temp\ccOAvSgI.s 			page 63


 2985              	.LVL242:
 569:Bsp/Src/NRF24.c **** 	nrf24_flush_rx();
 2986              		.loc 1 569 2 view .LVU589
 2987 000a FFF7FEFF 		bl	nrf24_flush_rx
 2988              	.LVL243:
 570:Bsp/Src/NRF24.c **** 
 571:Bsp/Src/NRF24.c **** 	nrf24_clear_rx_dr();
 2989              		.loc 1 571 2 view .LVU590
 2990 000e FFF7FEFF 		bl	nrf24_clear_rx_dr
 2991              	.LVL244:
 572:Bsp/Src/NRF24.c **** 	nrf24_clear_tx_ds();
 2992              		.loc 1 572 2 view .LVU591
 2993 0012 FFF7FEFF 		bl	nrf24_clear_tx_ds
 2994              	.LVL245:
 573:Bsp/Src/NRF24.c **** 	nrf24_clear_max_rt();
 2995              		.loc 1 573 2 view .LVU592
 2996 0016 FFF7FEFF 		bl	nrf24_clear_max_rt
 2997              	.LVL246:
 574:Bsp/Src/NRF24.c **** }
 2998              		.loc 1 574 1 is_stmt 0 view .LVU593
 2999 001a 08BD     		pop	{r3, pc}
 3000              		.cfi_endproc
 3001              	.LFE116:
 3003              		.text
 3004              	.Letext0:
 3005              		.file 2 "c:\\msys64\\mingw64\\arm-none-eabi\\include\\machine\\_default_types.h"
 3006              		.file 3 "c:\\msys64\\mingw64\\lib\\gcc\\arm-none-eabi\\12.2.0\\include\\stddef.h"
 3007              		.file 4 "c:\\msys64\\mingw64\\arm-none-eabi\\include\\sys\\_stdint.h"
 3008              		.file 5 "Drivers/CMSIS/Device/ST/STM32F1xx/Include/stm32f103xb.h"
 3009              		.file 6 "Drivers/STM32F1xx_HAL_Driver/Inc/stm32f1xx_hal_def.h"
 3010              		.file 7 "Drivers/STM32F1xx_HAL_Driver/Inc/stm32f1xx_hal_gpio.h"
 3011              		.file 8 "Drivers/STM32F1xx_HAL_Driver/Inc/stm32f1xx_hal_dma.h"
 3012              		.file 9 "Drivers/STM32F1xx_HAL_Driver/Inc/stm32f1xx_hal_spi.h"
 3013              		.file 10 "Bsp/Inc/NRF24.h"
 3014              		.file 11 "Drivers/STM32F1xx_HAL_Driver/Inc/stm32f1xx_hal.h"
ARM GAS  C:\Users\l1234\AppData\Local\Temp\ccOAvSgI.s 			page 64

