ARM GAS  C:\Users\l1234\AppData\Local\Temp\ccTmlPda.s 			page 1


   1              		.cpu cortex-m3
   2              		.arch armv7-m
   3              		.fpu softvfp
   4              		.eabi_attribute 20, 1
   5              		.eabi_attribute 21, 1
   6              		.eabi_attribute 23, 3
   7              		.eabi_attribute 24, 1
   8              		.eabi_attribute 25, 1
   9              		.eabi_attribute 26, 1
  10              		.eabi_attribute 30, 1
  11              		.eabi_attribute 34, 1
  12              		.eabi_attribute 18, 4
  13              		.file	"nrf24_comm.c"
  14              		.text
  15              	.Ltext0:
  16              		.cfi_sections	.debug_frame
  17              		.file 1 "Bsp/Src/nrf24_comm.c"
  18              		.global	__aeabi_i2f
  19              		.global	__aeabi_fdiv
  20              		.global	__aeabi_fmul
  21              		.global	__aeabi_fcmpgt
  22              		.global	__aeabi_fcmplt
  23              		.section	.text.map_adc_to_velocity,"ax",%progbits
  24              		.align	1
  25              		.syntax unified
  26              		.thumb
  27              		.thumb_func
  29              	map_adc_to_velocity:
  30              	.LVL0:
  31              	.LFB68:
   1:Bsp/Src/nrf24_comm.c **** /**
   2:Bsp/Src/nrf24_comm.c ****   ******************************************************************************
   3:Bsp/Src/nrf24_comm.c ****   * @file    nrf24_comm.c
   4:Bsp/Src/nrf24_comm.c ****   * @brief   NRF24 Communication Module Implementation
   5:Bsp/Src/nrf24_comm.c ****   ******************************************************************************
   6:Bsp/Src/nrf24_comm.c ****   */
   7:Bsp/Src/nrf24_comm.c **** 
   8:Bsp/Src/nrf24_comm.c **** /* Includes ------------------------------------------------------------------*/
   9:Bsp/Src/nrf24_comm.c **** #include "nrf24_comm.h"
  10:Bsp/Src/nrf24_comm.c **** #include "NRF24.h"
  11:Bsp/Src/nrf24_comm.c **** #include "NRF24_reg_addresses.h"
  12:Bsp/Src/nrf24_comm.c **** #include <string.h>
  13:Bsp/Src/nrf24_comm.c **** #include <math.h>
  14:Bsp/Src/nrf24_comm.c **** 
  15:Bsp/Src/nrf24_comm.c **** /* Private define ------------------------------------------------------------*/
  16:Bsp/Src/nrf24_comm.c **** #define BUZZER_PIN           GPIO_PIN_12
  17:Bsp/Src/nrf24_comm.c **** #define BUZZER_PORT          GPIOA
  18:Bsp/Src/nrf24_comm.c **** #define STATUS_FEEDBACK_INTERVAL    5000    // 5 seconds
  19:Bsp/Src/nrf24_comm.c **** 
  20:Bsp/Src/nrf24_comm.c **** /* Private variables ---------------------------------------------------------*/
  21:Bsp/Src/nrf24_comm.c **** NRF24_Status_t nrf24_status = {0};
  22:Bsp/Src/nrf24_comm.c **** NRF24_TxBuffer_t tx_buffer = {0};
  23:Bsp/Src/nrf24_comm.c **** static uint8_t tx_addr[NRF24_TX_ADDR_SIZE] = {'1', 'N', 'o', 'd', 'e'};
  24:Bsp/Src/nrf24_comm.c **** static uint32_t last_feedback_time = 0;
  25:Bsp/Src/nrf24_comm.c **** static bool status_feedback_pending = false;
  26:Bsp/Src/nrf24_comm.c **** static uint8_t current_robot_id = 0;
  27:Bsp/Src/nrf24_comm.c **** 
ARM GAS  C:\Users\l1234\AppData\Local\Temp\ccTmlPda.s 			page 2


  28:Bsp/Src/nrf24_comm.c **** // Default maximum robot number (can be changed externally)
  29:Bsp/Src/nrf24_comm.c **** volatile uint8_t MAX_ROBOT_NUMBER = 16;
  30:Bsp/Src/nrf24_comm.c **** 
  31:Bsp/Src/nrf24_comm.c **** // Global variables
  32:Bsp/Src/nrf24_comm.c **** PhysicalVelocity_t physical_remapped_adc = {0};
  33:Bsp/Src/nrf24_comm.c **** 
  34:Bsp/Src/nrf24_comm.c **** /* Private function prototypes -----------------------------------------------*/
  35:Bsp/Src/nrf24_comm.c **** static void NRF24_Comm_BuzzerBeep(uint32_t duration_ms);
  36:Bsp/Src/nrf24_comm.c **** static void NRF24_Comm_BuzzerDoubleBeep(void);
  37:Bsp/Src/nrf24_comm.c **** static bool NRF24_Comm_TestCommunication(void);
  38:Bsp/Src/nrf24_comm.c **** 
  39:Bsp/Src/nrf24_comm.c **** /* Private functions ---------------------------------------------------------*/
  40:Bsp/Src/nrf24_comm.c **** 
  41:Bsp/Src/nrf24_comm.c **** /**
  42:Bsp/Src/nrf24_comm.c ****   * @brief  Generate a buzzer beep
  43:Bsp/Src/nrf24_comm.c ****   * @param  duration_ms: Duration in milliseconds
  44:Bsp/Src/nrf24_comm.c ****   * @retval None
  45:Bsp/Src/nrf24_comm.c ****   */
  46:Bsp/Src/nrf24_comm.c **** static void NRF24_Comm_BuzzerBeep(uint32_t duration_ms)
  47:Bsp/Src/nrf24_comm.c **** {
  48:Bsp/Src/nrf24_comm.c ****   HAL_GPIO_WritePin(BUZZER_PORT, BUZZER_PIN, GPIO_PIN_SET);
  49:Bsp/Src/nrf24_comm.c ****   HAL_Delay(duration_ms);
  50:Bsp/Src/nrf24_comm.c ****   HAL_GPIO_WritePin(BUZZER_PORT, BUZZER_PIN, GPIO_PIN_RESET);
  51:Bsp/Src/nrf24_comm.c **** }
  52:Bsp/Src/nrf24_comm.c **** 
  53:Bsp/Src/nrf24_comm.c **** /**
  54:Bsp/Src/nrf24_comm.c ****   * @brief  Generate a double beep
  55:Bsp/Src/nrf24_comm.c ****   * @retval None
  56:Bsp/Src/nrf24_comm.c ****   */
  57:Bsp/Src/nrf24_comm.c **** static void NRF24_Comm_BuzzerDoubleBeep(void)
  58:Bsp/Src/nrf24_comm.c **** {
  59:Bsp/Src/nrf24_comm.c ****   NRF24_Comm_BuzzerBeep(100);
  60:Bsp/Src/nrf24_comm.c ****   HAL_Delay(100);
  61:Bsp/Src/nrf24_comm.c ****   NRF24_Comm_BuzzerBeep(100);
  62:Bsp/Src/nrf24_comm.c **** }
  63:Bsp/Src/nrf24_comm.c **** 
  64:Bsp/Src/nrf24_comm.c **** /**
  65:Bsp/Src/nrf24_comm.c ****   * @brief  Test communication with NRF24 module
  66:Bsp/Src/nrf24_comm.c ****   * @retval bool: true if communication is working
  67:Bsp/Src/nrf24_comm.c ****   */
  68:Bsp/Src/nrf24_comm.c **** static bool NRF24_Comm_TestCommunication(void)
  69:Bsp/Src/nrf24_comm.c **** {
  70:Bsp/Src/nrf24_comm.c ****   // Write a test value to a non-critical register and read it back
  71:Bsp/Src/nrf24_comm.c ****   uint8_t test_channel = 75;
  72:Bsp/Src/nrf24_comm.c ****   nrf24_set_channel(test_channel);
  73:Bsp/Src/nrf24_comm.c ****   HAL_Delay(1);
  74:Bsp/Src/nrf24_comm.c ****   
  75:Bsp/Src/nrf24_comm.c ****   uint8_t read_channel = nrf24_r_reg(RF_CH, 1);
  76:Bsp/Src/nrf24_comm.c ****   
  77:Bsp/Src/nrf24_comm.c ****   // Restore original channel
  78:Bsp/Src/nrf24_comm.c ****   nrf24_set_channel(NRF24_CHANNEL);
  79:Bsp/Src/nrf24_comm.c ****   
  80:Bsp/Src/nrf24_comm.c ****   return (read_channel == test_channel);
  81:Bsp/Src/nrf24_comm.c **** }
  82:Bsp/Src/nrf24_comm.c **** 
  83:Bsp/Src/nrf24_comm.c **** /**
  84:Bsp/Src/nrf24_comm.c ****  * @brief Maps ADC value (0-4095) to physical velocity with strict bounds checking
ARM GAS  C:\Users\l1234\AppData\Local\Temp\ccTmlPda.s 			page 3


  85:Bsp/Src/nrf24_comm.c ****  * @param adc_value: Raw ADC value
  86:Bsp/Src/nrf24_comm.c ****  * @param max_vel: Maximum velocity (positive)
  87:Bsp/Src/nrf24_comm.c ****  * @return Mapped velocity in physical units (m/s or rad/s)
  88:Bsp/Src/nrf24_comm.c ****  */
  89:Bsp/Src/nrf24_comm.c **** static float map_adc_to_velocity(uint16_t adc_value, float max_vel) {
  32              		.loc 1 89 69 view -0
  33              		.cfi_startproc
  34              		@ args = 0, pretend = 0, frame = 0
  35              		@ frame_needed = 0, uses_anonymous_args = 0
  36              		.loc 1 89 69 is_stmt 0 view .LVU1
  37 0000 38B5     		push	{r3, r4, r5, lr}
  38              	.LCFI0:
  39              		.cfi_def_cfa_offset 16
  40              		.cfi_offset 3, -16
  41              		.cfi_offset 4, -12
  42              		.cfi_offset 5, -8
  43              		.cfi_offset 14, -4
  44 0002 0C46     		mov	r4, r1
  90:Bsp/Src/nrf24_comm.c ****     // Strict bounds checking
  91:Bsp/Src/nrf24_comm.c ****     if (adc_value > ADC_MAX) adc_value = ADC_MAX;
  45              		.loc 1 91 5 is_stmt 1 view .LVU2
  46              		.loc 1 91 8 is_stmt 0 view .LVU3
  47 0004 B0F5805F 		cmp	r0, #4096
  48 0008 01D3     		bcc	.L2
  49              		.loc 1 91 40 view .LVU4
  50 000a 40F6FF70 		movw	r0, #4095
  51              	.LVL1:
  52              	.L2:
  92:Bsp/Src/nrf24_comm.c ****     if (adc_value < ADC_MIN) adc_value = ADC_MIN;
  53              		.loc 1 92 5 is_stmt 1 view .LVU5
  93:Bsp/Src/nrf24_comm.c ****     
  94:Bsp/Src/nrf24_comm.c ****     // Convert to signed range first
  95:Bsp/Src/nrf24_comm.c ****     int32_t signed_value = (int32_t)adc_value - ADC_CENTER;
  54              		.loc 1 95 5 view .LVU6
  96:Bsp/Src/nrf24_comm.c ****     
  97:Bsp/Src/nrf24_comm.c ****     // Calculate percentage of full range (-1.0 to +1.0)
  98:Bsp/Src/nrf24_comm.c ****     float percentage;
  55              		.loc 1 98 5 view .LVU7
  99:Bsp/Src/nrf24_comm.c ****     if (signed_value >= 0) {
  56              		.loc 1 99 5 view .LVU8
  57              		.loc 1 99 8 is_stmt 0 view .LVU9
  58 000e B0F50060 		subs	r0, r0, #2048
  59              	.LVL2:
  60              		.loc 1 99 8 view .LVU10
  61 0012 24D4     		bmi	.L3
 100:Bsp/Src/nrf24_comm.c ****         percentage = (float)signed_value / (float)(ADC_MAX - ADC_CENTER);
  62              		.loc 1 100 9 is_stmt 1 view .LVU11
  63              		.loc 1 100 22 is_stmt 0 view .LVU12
  64 0014 FFF7FEFF 		bl	__aeabi_i2f
  65              	.LVL3:
  66              		.loc 1 100 20 view .LVU13
  67 0018 1649     		ldr	r1, .L14
  68 001a FFF7FEFF 		bl	__aeabi_fdiv
  69              	.LVL4:
  70 001e 0546     		mov	r5, r0
  71              	.LVL5:
  72              	.L4:
ARM GAS  C:\Users\l1234\AppData\Local\Temp\ccTmlPda.s 			page 4


 101:Bsp/Src/nrf24_comm.c ****     } else {
 102:Bsp/Src/nrf24_comm.c ****         percentage = (float)signed_value / (float)(ADC_CENTER - ADC_MIN);
 103:Bsp/Src/nrf24_comm.c ****     }
 104:Bsp/Src/nrf24_comm.c ****     
 105:Bsp/Src/nrf24_comm.c ****     // Apply deadband
 106:Bsp/Src/nrf24_comm.c ****     if (percentage > -0.02f && percentage < 0.02f) {
  73              		.loc 1 106 5 is_stmt 1 view .LVU14
  74              		.loc 1 106 8 is_stmt 0 view .LVU15
  75 0020 1549     		ldr	r1, .L14+4
  76 0022 2846     		mov	r0, r5
  77              		.loc 1 106 8 view .LVU16
  78 0024 FFF7FEFF 		bl	__aeabi_fcmpgt
  79              	.LVL6:
  80              		.loc 1 106 8 view .LVU17
  81 0028 20B1     		cbz	r0, .L5
  82              		.loc 1 106 29 discriminator 1 view .LVU18
  83 002a 1449     		ldr	r1, .L14+8
  84 002c 2846     		mov	r0, r5
  85 002e FFF7FEFF 		bl	__aeabi_fcmplt
  86              	.LVL7:
  87 0032 E0B9     		cbnz	r0, .L10
  88              	.L5:
 107:Bsp/Src/nrf24_comm.c ****         return 0.0f;
 108:Bsp/Src/nrf24_comm.c ****     }
 109:Bsp/Src/nrf24_comm.c ****     
 110:Bsp/Src/nrf24_comm.c ****     // Calculate velocity with strict bounds
 111:Bsp/Src/nrf24_comm.c ****     float velocity = percentage * max_vel;
  89              		.loc 1 111 5 is_stmt 1 view .LVU19
  90              		.loc 1 111 11 is_stmt 0 view .LVU20
  91 0034 2146     		mov	r1, r4
  92 0036 2846     		mov	r0, r5
  93 0038 FFF7FEFF 		bl	__aeabi_fmul
  94              	.LVL8:
  95 003c 0546     		mov	r5, r0
  96              	.LVL9:
 112:Bsp/Src/nrf24_comm.c ****     
 113:Bsp/Src/nrf24_comm.c ****     // Final bounds check
 114:Bsp/Src/nrf24_comm.c ****     if (velocity > max_vel) velocity = max_vel;
  97              		.loc 1 114 5 is_stmt 1 view .LVU21
  98              		.loc 1 114 8 is_stmt 0 view .LVU22
  99 003e 0146     		mov	r1, r0
 100 0040 2046     		mov	r0, r4
 101              	.LVL10:
 102              		.loc 1 114 8 view .LVU23
 103 0042 FFF7FEFF 		bl	__aeabi_fcmplt
 104              	.LVL11:
 105              		.loc 1 114 8 view .LVU24
 106 0046 00B1     		cbz	r0, .L8
 107              		.loc 1 114 38 view .LVU25
 108 0048 2546     		mov	r5, r4
 109              	.LVL12:
 110              	.L8:
 115:Bsp/Src/nrf24_comm.c ****     if (velocity < -max_vel) velocity = -max_vel;
 111              		.loc 1 115 5 is_stmt 1 view .LVU26
 112              		.loc 1 115 20 is_stmt 0 view .LVU27
 113 004a 04F10044 		add	r4, r4, #-2147483648
 114              	.LVL13:
ARM GAS  C:\Users\l1234\AppData\Local\Temp\ccTmlPda.s 			page 5


 115              		.loc 1 115 8 view .LVU28
 116 004e 2946     		mov	r1, r5
 117 0050 2046     		mov	r0, r4
 118 0052 FFF7FEFF 		bl	__aeabi_fcmpgt
 119              	.LVL14:
 120 0056 00B9     		cbnz	r0, .L1
 121 0058 2C46     		mov	r4, r5
 122              	.LVL15:
 123              	.L1:
 116:Bsp/Src/nrf24_comm.c ****     
 117:Bsp/Src/nrf24_comm.c ****     return velocity;
 118:Bsp/Src/nrf24_comm.c **** }
 124              		.loc 1 118 1 view .LVU29
 125 005a 2046     		mov	r0, r4
 126 005c 38BD     		pop	{r3, r4, r5, pc}
 127              	.LVL16:
 128              	.L3:
 102:Bsp/Src/nrf24_comm.c ****     }
 129              		.loc 1 102 9 is_stmt 1 view .LVU30
 102:Bsp/Src/nrf24_comm.c ****     }
 130              		.loc 1 102 22 is_stmt 0 view .LVU31
 131 005e FFF7FEFF 		bl	__aeabi_i2f
 132              	.LVL17:
 102:Bsp/Src/nrf24_comm.c ****     }
 133              		.loc 1 102 20 view .LVU32
 134 0062 4FF06851 		mov	r1, #973078528
 135 0066 FFF7FEFF 		bl	__aeabi_fmul
 136              	.LVL18:
 137 006a 0546     		mov	r5, r0
 138              	.LVL19:
 102:Bsp/Src/nrf24_comm.c ****     }
 139              		.loc 1 102 20 view .LVU33
 140 006c D8E7     		b	.L4
 141              	.LVL20:
 142              	.L10:
 107:Bsp/Src/nrf24_comm.c ****     }
 143              		.loc 1 107 16 view .LVU34
 144 006e 0024     		movs	r4, #0
 145              	.LVL21:
 107:Bsp/Src/nrf24_comm.c ****     }
 146              		.loc 1 107 16 view .LVU35
 147 0070 F3E7     		b	.L1
 148              	.L15:
 149 0072 00BF     		.align	2
 150              	.L14:
 151 0074 00E0FF44 		.word	1157619712
 152 0078 0AD7A3BC 		.word	-1130113270
 153 007c 0AD7A33C 		.word	1017370378
 154              		.cfi_endproc
 155              	.LFE68:
 157              		.section	.text.float32_to_float16,"ax",%progbits
 158              		.align	1
 159              		.syntax unified
 160              		.thumb
 161              		.thumb_func
 163              	float32_to_float16:
 164              	.LVL22:
ARM GAS  C:\Users\l1234\AppData\Local\Temp\ccTmlPda.s 			page 6


 165              	.LFB69:
 119:Bsp/Src/nrf24_comm.c **** 
 120:Bsp/Src/nrf24_comm.c **** /**
 121:Bsp/Src/nrf24_comm.c ****  * @brief Convert float32 to float16 exactly matching NumPy's float16
 122:Bsp/Src/nrf24_comm.c ****  * @param f: Input float32 value
 123:Bsp/Src/nrf24_comm.c ****  * @return uint16_t: Float16 bits
 124:Bsp/Src/nrf24_comm.c ****  */
 125:Bsp/Src/nrf24_comm.c **** static uint16_t float32_to_float16(float f) {
 166              		.loc 1 125 45 is_stmt 1 view -0
 167              		.cfi_startproc
 168              		@ args = 0, pretend = 0, frame = 0
 169              		@ frame_needed = 0, uses_anonymous_args = 0
 170              		@ link register save eliminated.
 126:Bsp/Src/nrf24_comm.c ****     union { float f; uint32_t u; } v = { f };
 171              		.loc 1 126 5 view .LVU37
 127:Bsp/Src/nrf24_comm.c ****     uint32_t x = v.u;
 172              		.loc 1 127 5 view .LVU38
 173 0000 0146     		mov	r1, r0
 174              	.LVL23:
 128:Bsp/Src/nrf24_comm.c **** 
 129:Bsp/Src/nrf24_comm.c ****     uint32_t sign     = (x >> 31) & 0x1;
 175              		.loc 1 129 5 view .LVU39
 130:Bsp/Src/nrf24_comm.c ****     int32_t  exponent = ((x >> 23) & 0xFF) - 127; // float32 bias is 127
 176              		.loc 1 130 5 view .LVU40
 177              		.loc 1 130 36 is_stmt 0 view .LVU41
 178 0002 C0F3C752 		ubfx	r2, r0, #23, #8
 179              		.loc 1 130 44 view .LVU42
 180 0006 7F3A     		subs	r2, r2, #127
 181              	.LVL24:
 131:Bsp/Src/nrf24_comm.c ****     uint32_t mantissa = x & 0x7FFFFF;
 182              		.loc 1 131 5 is_stmt 1 view .LVU43
 132:Bsp/Src/nrf24_comm.c **** 
 133:Bsp/Src/nrf24_comm.c ****     uint16_t hsign = sign << 15;
 183              		.loc 1 133 5 view .LVU44
 184              		.loc 1 133 27 is_stmt 0 view .LVU45
 185 0008 C30F     		lsrs	r3, r0, #31
 186              	.LVL25:
 187              		.loc 1 133 14 view .LVU46
 188 000a D803     		lsls	r0, r3, #15
 189              	.LVL26:
 134:Bsp/Src/nrf24_comm.c ****     int16_t hexponent;
 190              		.loc 1 134 5 is_stmt 1 view .LVU47
 135:Bsp/Src/nrf24_comm.c ****     uint16_t hmantissa;
 191              		.loc 1 135 5 view .LVU48
 136:Bsp/Src/nrf24_comm.c **** 
 137:Bsp/Src/nrf24_comm.c ****     if (exponent > 15) {
 192              		.loc 1 137 5 view .LVU49
 193              		.loc 1 137 8 is_stmt 0 view .LVU50
 194 000c 0F2A     		cmp	r2, #15
 195 000e 0CDC     		bgt	.L19
 138:Bsp/Src/nrf24_comm.c ****         // Overflow for float16 (max exponent is 15), return inf
 139:Bsp/Src/nrf24_comm.c ****         return hsign | (0x1F << 10);
 140:Bsp/Src/nrf24_comm.c ****     } else if (exponent > -15) {
 196              		.loc 1 140 12 is_stmt 1 view .LVU51
 197              		.loc 1 140 15 is_stmt 0 view .LVU52
 198 0010 12F10E0F 		cmn	r2, #14
 199 0014 08DB     		blt	.L18
ARM GAS  C:\Users\l1234\AppData\Local\Temp\ccTmlPda.s 			page 7


 141:Bsp/Src/nrf24_comm.c ****         // Normal float16
 142:Bsp/Src/nrf24_comm.c ****         hexponent = exponent + 15;
 200              		.loc 1 142 9 is_stmt 1 view .LVU53
 201              		.loc 1 142 30 is_stmt 0 view .LVU54
 202 0016 0F32     		adds	r2, r2, #15
 203              	.LVL27:
 204              		.loc 1 142 19 view .LVU55
 205 0018 12B2     		sxth	r2, r2
 206              	.LVL28:
 143:Bsp/Src/nrf24_comm.c ****         hmantissa = mantissa >> 13; // 23 - 10
 207              		.loc 1 143 9 is_stmt 1 view .LVU56
 208              		.loc 1 143 30 is_stmt 0 view .LVU57
 209 001a C1F34931 		ubfx	r1, r1, #13, #10
 210              	.LVL29:
 144:Bsp/Src/nrf24_comm.c ****         return hsign | (hexponent << 10) | hmantissa;
 211              		.loc 1 144 9 is_stmt 1 view .LVU58
 212              		.loc 1 144 22 is_stmt 0 view .LVU59
 213 001e 40EA8220 		orr	r0, r0, r2, lsl #10
 214              	.LVL30:
 215              		.loc 1 144 22 view .LVU60
 216 0022 00B2     		sxth	r0, r0
 217              		.loc 1 144 42 view .LVU61
 218 0024 0843     		orrs	r0, r0, r1
 219 0026 80B2     		uxth	r0, r0
 220              	.LVL31:
 221              	.L18:
 145:Bsp/Src/nrf24_comm.c ****     } else {
 146:Bsp/Src/nrf24_comm.c ****         // Underflow ¡ú too small ¡ú return zero
 147:Bsp/Src/nrf24_comm.c ****         return hsign;
 148:Bsp/Src/nrf24_comm.c ****     }
 149:Bsp/Src/nrf24_comm.c **** }
 222              		.loc 1 149 1 view .LVU62
 223 0028 7047     		bx	lr
 224              	.LVL32:
 225              	.L19:
 139:Bsp/Src/nrf24_comm.c ****     } else if (exponent > -15) {
 226              		.loc 1 139 9 is_stmt 1 view .LVU63
 139:Bsp/Src/nrf24_comm.c ****     } else if (exponent > -15) {
 227              		.loc 1 139 22 is_stmt 0 view .LVU64
 228 002a 40F4F840 		orr	r0, r0, #31744
 229              	.LVL33:
 139:Bsp/Src/nrf24_comm.c ****     } else if (exponent > -15) {
 230              		.loc 1 139 22 view .LVU65
 231 002e 7047     		bx	lr
 232              		.cfi_endproc
 233              	.LFE69:
 235              		.section	.text.NRF24_Comm_TestCommunication,"ax",%progbits
 236              		.align	1
 237              		.syntax unified
 238              		.thumb
 239              		.thumb_func
 241              	NRF24_Comm_TestCommunication:
 242              	.LFB67:
  69:Bsp/Src/nrf24_comm.c ****   // Write a test value to a non-critical register and read it back
 243              		.loc 1 69 1 is_stmt 1 view -0
 244              		.cfi_startproc
 245              		@ args = 0, pretend = 0, frame = 0
ARM GAS  C:\Users\l1234\AppData\Local\Temp\ccTmlPda.s 			page 8


 246              		@ frame_needed = 0, uses_anonymous_args = 0
 247 0000 10B5     		push	{r4, lr}
 248              	.LCFI1:
 249              		.cfi_def_cfa_offset 8
 250              		.cfi_offset 4, -8
 251              		.cfi_offset 14, -4
  71:Bsp/Src/nrf24_comm.c ****   nrf24_set_channel(test_channel);
 252              		.loc 1 71 3 view .LVU67
 253              	.LVL34:
  72:Bsp/Src/nrf24_comm.c ****   HAL_Delay(1);
 254              		.loc 1 72 3 view .LVU68
 255 0002 4B20     		movs	r0, #75
 256 0004 FFF7FEFF 		bl	nrf24_set_channel
 257              	.LVL35:
  73:Bsp/Src/nrf24_comm.c ****   
 258              		.loc 1 73 3 view .LVU69
 259 0008 0120     		movs	r0, #1
 260 000a FFF7FEFF 		bl	HAL_Delay
 261              	.LVL36:
  75:Bsp/Src/nrf24_comm.c ****   
 262              		.loc 1 75 3 view .LVU70
  75:Bsp/Src/nrf24_comm.c ****   
 263              		.loc 1 75 26 is_stmt 0 view .LVU71
 264 000e 0121     		movs	r1, #1
 265 0010 0520     		movs	r0, #5
 266 0012 FFF7FEFF 		bl	nrf24_r_reg
 267              	.LVL37:
 268 0016 0446     		mov	r4, r0
 269              	.LVL38:
  78:Bsp/Src/nrf24_comm.c ****   
 270              		.loc 1 78 3 is_stmt 1 view .LVU72
 271 0018 4C20     		movs	r0, #76
 272 001a FFF7FEFF 		bl	nrf24_set_channel
 273              	.LVL39:
  80:Bsp/Src/nrf24_comm.c **** }
 274              		.loc 1 80 3 view .LVU73
  81:Bsp/Src/nrf24_comm.c **** 
 275              		.loc 1 81 1 is_stmt 0 view .LVU74
 276 001e 4B2C     		cmp	r4, #75
 277 0020 14BF     		ite	ne
 278 0022 0020     		movne	r0, #0
 279 0024 0120     		moveq	r0, #1
 280 0026 10BD     		pop	{r4, pc}
  81:Bsp/Src/nrf24_comm.c **** 
 281              		.loc 1 81 1 view .LVU75
 282              		.cfi_endproc
 283              	.LFE67:
 285              		.section	.text.NRF24_Comm_BuzzerBeep,"ax",%progbits
 286              		.align	1
 287              		.syntax unified
 288              		.thumb
 289              		.thumb_func
 291              	NRF24_Comm_BuzzerBeep:
 292              	.LVL40:
 293              	.LFB65:
  47:Bsp/Src/nrf24_comm.c ****   HAL_GPIO_WritePin(BUZZER_PORT, BUZZER_PIN, GPIO_PIN_SET);
 294              		.loc 1 47 1 is_stmt 1 view -0
ARM GAS  C:\Users\l1234\AppData\Local\Temp\ccTmlPda.s 			page 9


 295              		.cfi_startproc
 296              		@ args = 0, pretend = 0, frame = 0
 297              		@ frame_needed = 0, uses_anonymous_args = 0
  47:Bsp/Src/nrf24_comm.c ****   HAL_GPIO_WritePin(BUZZER_PORT, BUZZER_PIN, GPIO_PIN_SET);
 298              		.loc 1 47 1 is_stmt 0 view .LVU77
 299 0000 38B5     		push	{r3, r4, r5, lr}
 300              	.LCFI2:
 301              		.cfi_def_cfa_offset 16
 302              		.cfi_offset 3, -16
 303              		.cfi_offset 4, -12
 304              		.cfi_offset 5, -8
 305              		.cfi_offset 14, -4
 306 0002 0446     		mov	r4, r0
  48:Bsp/Src/nrf24_comm.c ****   HAL_Delay(duration_ms);
 307              		.loc 1 48 3 is_stmt 1 view .LVU78
 308 0004 084D     		ldr	r5, .L24
 309 0006 0122     		movs	r2, #1
 310 0008 4FF48051 		mov	r1, #4096
 311 000c 2846     		mov	r0, r5
 312              	.LVL41:
  48:Bsp/Src/nrf24_comm.c ****   HAL_Delay(duration_ms);
 313              		.loc 1 48 3 is_stmt 0 view .LVU79
 314 000e FFF7FEFF 		bl	HAL_GPIO_WritePin
 315              	.LVL42:
  49:Bsp/Src/nrf24_comm.c ****   HAL_GPIO_WritePin(BUZZER_PORT, BUZZER_PIN, GPIO_PIN_RESET);
 316              		.loc 1 49 3 is_stmt 1 view .LVU80
 317 0012 2046     		mov	r0, r4
 318 0014 FFF7FEFF 		bl	HAL_Delay
 319              	.LVL43:
  50:Bsp/Src/nrf24_comm.c **** }
 320              		.loc 1 50 3 view .LVU81
 321 0018 0022     		movs	r2, #0
 322 001a 4FF48051 		mov	r1, #4096
 323 001e 2846     		mov	r0, r5
 324 0020 FFF7FEFF 		bl	HAL_GPIO_WritePin
 325              	.LVL44:
  51:Bsp/Src/nrf24_comm.c **** 
 326              		.loc 1 51 1 is_stmt 0 view .LVU82
 327 0024 38BD     		pop	{r3, r4, r5, pc}
 328              	.LVL45:
 329              	.L25:
  51:Bsp/Src/nrf24_comm.c **** 
 330              		.loc 1 51 1 view .LVU83
 331 0026 00BF     		.align	2
 332              	.L24:
 333 0028 00080140 		.word	1073809408
 334              		.cfi_endproc
 335              	.LFE65:
 337              		.section	.text.NRF24_Comm_BuzzerDoubleBeep,"ax",%progbits
 338              		.align	1
 339              		.syntax unified
 340              		.thumb
 341              		.thumb_func
 343              	NRF24_Comm_BuzzerDoubleBeep:
 344              	.LFB66:
  58:Bsp/Src/nrf24_comm.c ****   NRF24_Comm_BuzzerBeep(100);
 345              		.loc 1 58 1 is_stmt 1 view -0
ARM GAS  C:\Users\l1234\AppData\Local\Temp\ccTmlPda.s 			page 10


 346              		.cfi_startproc
 347              		@ args = 0, pretend = 0, frame = 0
 348              		@ frame_needed = 0, uses_anonymous_args = 0
 349 0000 08B5     		push	{r3, lr}
 350              	.LCFI3:
 351              		.cfi_def_cfa_offset 8
 352              		.cfi_offset 3, -8
 353              		.cfi_offset 14, -4
  59:Bsp/Src/nrf24_comm.c ****   HAL_Delay(100);
 354              		.loc 1 59 3 view .LVU85
 355 0002 6420     		movs	r0, #100
 356 0004 FFF7FEFF 		bl	NRF24_Comm_BuzzerBeep
 357              	.LVL46:
  60:Bsp/Src/nrf24_comm.c ****   NRF24_Comm_BuzzerBeep(100);
 358              		.loc 1 60 3 view .LVU86
 359 0008 6420     		movs	r0, #100
 360 000a FFF7FEFF 		bl	HAL_Delay
 361              	.LVL47:
  61:Bsp/Src/nrf24_comm.c **** }
 362              		.loc 1 61 3 view .LVU87
 363 000e 6420     		movs	r0, #100
 364 0010 FFF7FEFF 		bl	NRF24_Comm_BuzzerBeep
 365              	.LVL48:
  62:Bsp/Src/nrf24_comm.c **** 
 366              		.loc 1 62 1 is_stmt 0 view .LVU88
 367 0014 08BD     		pop	{r3, pc}
 368              		.cfi_endproc
 369              	.LFE66:
 371              		.section	.text.NRF24_Comm_Init,"ax",%progbits
 372              		.align	1
 373              		.global	NRF24_Comm_Init
 374              		.syntax unified
 375              		.thumb
 376              		.thumb_func
 378              	NRF24_Comm_Init:
 379              	.LFB70:
 150:Bsp/Src/nrf24_comm.c **** 
 151:Bsp/Src/nrf24_comm.c **** /* Public functions ----------------------------------------------------------*/
 152:Bsp/Src/nrf24_comm.c **** 
 153:Bsp/Src/nrf24_comm.c **** /**
 154:Bsp/Src/nrf24_comm.c ****   * @brief  Initialize NRF24 communication module
 155:Bsp/Src/nrf24_comm.c ****   * @retval bool: true if initialization successful
 156:Bsp/Src/nrf24_comm.c ****   */
 157:Bsp/Src/nrf24_comm.c **** bool NRF24_Comm_Init(void)
 158:Bsp/Src/nrf24_comm.c **** {
 380              		.loc 1 158 1 is_stmt 1 view -0
 381              		.cfi_startproc
 382              		@ args = 0, pretend = 0, frame = 0
 383              		@ frame_needed = 0, uses_anonymous_args = 0
 384 0000 38B5     		push	{r3, r4, r5, lr}
 385              	.LCFI4:
 386              		.cfi_def_cfa_offset 16
 387              		.cfi_offset 3, -16
 388              		.cfi_offset 4, -12
 389              		.cfi_offset 5, -8
 390              		.cfi_offset 14, -4
 159:Bsp/Src/nrf24_comm.c ****     // Reset status
ARM GAS  C:\Users\l1234\AppData\Local\Temp\ccTmlPda.s 			page 11


 160:Bsp/Src/nrf24_comm.c ****     memset(&nrf24_status, 0, sizeof(nrf24_status));
 391              		.loc 1 160 5 view .LVU90
 392 0002 354D     		ldr	r5, .L34
 393 0004 0024     		movs	r4, #0
 394 0006 2C60     		str	r4, [r5]
 395 0008 6C60     		str	r4, [r5, #4]
 396 000a AC60     		str	r4, [r5, #8]
 397 000c EC60     		str	r4, [r5, #12]
 398 000e 2C61     		str	r4, [r5, #16]
 399 0010 6C61     		str	r4, [r5, #20]
 161:Bsp/Src/nrf24_comm.c ****     nrf24_status.control_mode = CONTROL_MODE_JOYSTICK;  // Start in joystick mode
 400              		.loc 1 161 5 view .LVU91
 162:Bsp/Src/nrf24_comm.c ****     nrf24_status.last_uart_time = HAL_GetTick();       // Initialize timestamp
 401              		.loc 1 162 5 view .LVU92
 402              		.loc 1 162 35 is_stmt 0 view .LVU93
 403 0012 FFF7FEFF 		bl	HAL_GetTick
 404              	.LVL49:
 405              		.loc 1 162 33 view .LVU94
 406 0016 6861     		str	r0, [r5, #20]
 163:Bsp/Src/nrf24_comm.c ****     
 164:Bsp/Src/nrf24_comm.c ****     // Initialize NRF24 pins
 165:Bsp/Src/nrf24_comm.c ****     csn_high();
 407              		.loc 1 165 5 is_stmt 1 view .LVU95
 408 0018 FFF7FEFF 		bl	csn_high
 409              	.LVL50:
 166:Bsp/Src/nrf24_comm.c ****     ce_high();
 410              		.loc 1 166 5 view .LVU96
 411 001c FFF7FEFF 		bl	ce_high
 412              	.LVL51:
 167:Bsp/Src/nrf24_comm.c ****     HAL_Delay(5);
 413              		.loc 1 167 5 view .LVU97
 414 0020 0520     		movs	r0, #5
 415 0022 FFF7FEFF 		bl	HAL_Delay
 416              	.LVL52:
 168:Bsp/Src/nrf24_comm.c ****     ce_low();
 417              		.loc 1 168 5 view .LVU98
 418 0026 FFF7FEFF 		bl	ce_low
 419              	.LVL53:
 169:Bsp/Src/nrf24_comm.c ****     
 170:Bsp/Src/nrf24_comm.c ****     // Initialize NRF24 module
 171:Bsp/Src/nrf24_comm.c ****     nrf24_init();
 420              		.loc 1 171 5 view .LVU99
 421 002a FFF7FEFF 		bl	nrf24_init
 422              	.LVL54:
 172:Bsp/Src/nrf24_comm.c ****     nrf24_stop_listen();
 423              		.loc 1 172 5 view .LVU100
 424 002e FFF7FEFF 		bl	nrf24_stop_listen
 425              	.LVL55:
 173:Bsp/Src/nrf24_comm.c ****     
 174:Bsp/Src/nrf24_comm.c ****     // Configure NRF24 settings
 175:Bsp/Src/nrf24_comm.c ****     nrf24_auto_ack_all(auto_ack);
 426              		.loc 1 175 5 view .LVU101
 427 0032 0120     		movs	r0, #1
 428 0034 FFF7FEFF 		bl	nrf24_auto_ack_all
 429              	.LVL56:
 176:Bsp/Src/nrf24_comm.c ****     nrf24_en_ack_pld(enable);
 430              		.loc 1 176 5 view .LVU102
ARM GAS  C:\Users\l1234\AppData\Local\Temp\ccTmlPda.s 			page 12


 431 0038 0120     		movs	r0, #1
 432 003a FFF7FEFF 		bl	nrf24_en_ack_pld
 433              	.LVL57:
 177:Bsp/Src/nrf24_comm.c ****     nrf24_dpl(enable);
 434              		.loc 1 177 5 view .LVU103
 435 003e 0120     		movs	r0, #1
 436 0040 FFF7FEFF 		bl	nrf24_dpl
 437              	.LVL58:
 178:Bsp/Src/nrf24_comm.c ****     nrf24_set_crc(en_crc, _2byte);
 438              		.loc 1 178 5 view .LVU104
 439 0044 0121     		movs	r1, #1
 440 0046 0846     		mov	r0, r1
 441 0048 FFF7FEFF 		bl	nrf24_set_crc
 442              	.LVL59:
 179:Bsp/Src/nrf24_comm.c ****     nrf24_tx_pwr(n12dbm);                    // Maximum power
 443              		.loc 1 179 5 view .LVU105
 444 004c 0120     		movs	r0, #1
 445 004e FFF7FEFF 		bl	nrf24_tx_pwr
 446              	.LVL60:
 180:Bsp/Src/nrf24_comm.c ****     nrf24_data_rate(_1mbps);                // 1Mbps data rate
 447              		.loc 1 180 5 view .LVU106
 448 0052 2046     		mov	r0, r4
 449 0054 FFF7FEFF 		bl	nrf24_data_rate
 450              	.LVL61:
 181:Bsp/Src/nrf24_comm.c ****     nrf24_set_channel(NRF24_CHANNEL);       // Channel 90
 451              		.loc 1 181 5 view .LVU107
 452 0058 4C20     		movs	r0, #76
 453 005a FFF7FEFF 		bl	nrf24_set_channel
 454              	.LVL62:
 182:Bsp/Src/nrf24_comm.c ****     nrf24_set_addr_width(NRF24_TX_ADDR_SIZE);
 455              		.loc 1 182 5 view .LVU108
 456 005e 0520     		movs	r0, #5
 457 0060 FFF7FEFF 		bl	nrf24_set_addr_width
 458              	.LVL63:
 183:Bsp/Src/nrf24_comm.c ****     
 184:Bsp/Src/nrf24_comm.c ****     // Disable dynamic payload for all pipes
 185:Bsp/Src/nrf24_comm.c ****     for(int i = 0; i < 6; i++) {
 459              		.loc 1 185 5 view .LVU109
 460              	.LBB2:
 461              		.loc 1 185 9 view .LVU110
 462              		.loc 1 185 5 is_stmt 0 view .LVU111
 463 0064 04E0     		b	.L29
 464              	.LVL64:
 465              	.L30:
 186:Bsp/Src/nrf24_comm.c ****         nrf24_set_rx_dpl(i, enable);
 466              		.loc 1 186 9 is_stmt 1 discriminator 3 view .LVU112
 467 0066 0121     		movs	r1, #1
 468 0068 E0B2     		uxtb	r0, r4
 469 006a FFF7FEFF 		bl	nrf24_set_rx_dpl
 470              	.LVL65:
 185:Bsp/Src/nrf24_comm.c ****         nrf24_set_rx_dpl(i, enable);
 471              		.loc 1 185 28 discriminator 3 view .LVU113
 472 006e 0134     		adds	r4, r4, #1
 473              	.LVL66:
 474              	.L29:
 185:Bsp/Src/nrf24_comm.c ****         nrf24_set_rx_dpl(i, enable);
 475              		.loc 1 185 22 discriminator 1 view .LVU114
ARM GAS  C:\Users\l1234\AppData\Local\Temp\ccTmlPda.s 			page 13


 476 0070 052C     		cmp	r4, #5
 477 0072 F8DD     		ble	.L30
 478              	.LBE2:
 187:Bsp/Src/nrf24_comm.c ****     }
 188:Bsp/Src/nrf24_comm.c ****     
 189:Bsp/Src/nrf24_comm.c ****     // Set payload size
 190:Bsp/Src/nrf24_comm.c ****     nrf24_pipe_pld_size(0, NRF24_PAYLOAD_SIZE);
 479              		.loc 1 190 5 view .LVU115
 480 0074 0A21     		movs	r1, #10
 481 0076 0020     		movs	r0, #0
 482 0078 FFF7FEFF 		bl	nrf24_pipe_pld_size
 483              	.LVL67:
 191:Bsp/Src/nrf24_comm.c ****     
 192:Bsp/Src/nrf24_comm.c ****     // Set auto retransmission
 193:Bsp/Src/nrf24_comm.c ****     nrf24_auto_retr_delay(4);               // 1.25ms delay
 484              		.loc 1 193 5 view .LVU116
 485 007c 0420     		movs	r0, #4
 486 007e FFF7FEFF 		bl	nrf24_auto_retr_delay
 487              	.LVL68:
 194:Bsp/Src/nrf24_comm.c ****     nrf24_auto_retr_limit(10);              // 10 retries
 488              		.loc 1 194 5 view .LVU117
 489 0082 0A20     		movs	r0, #10
 490 0084 FFF7FEFF 		bl	nrf24_auto_retr_limit
 491              	.LVL69:
 195:Bsp/Src/nrf24_comm.c ****     
 196:Bsp/Src/nrf24_comm.c ****     // Open TX pipe
 197:Bsp/Src/nrf24_comm.c ****     nrf24_open_tx_pipe(tx_addr);
 492              		.loc 1 197 5 view .LVU118
 493 0088 144C     		ldr	r4, .L34+4
 494              	.LVL70:
 495              		.loc 1 197 5 is_stmt 0 view .LVU119
 496 008a 2046     		mov	r0, r4
 497 008c FFF7FEFF 		bl	nrf24_open_tx_pipe
 498              	.LVL71:
 198:Bsp/Src/nrf24_comm.c ****     nrf24_open_rx_pipe(0, tx_addr);
 499              		.loc 1 198 5 is_stmt 1 view .LVU120
 500 0090 2146     		mov	r1, r4
 501 0092 0020     		movs	r0, #0
 502 0094 FFF7FEFF 		bl	nrf24_open_rx_pipe
 503              	.LVL72:
 199:Bsp/Src/nrf24_comm.c ****     
 200:Bsp/Src/nrf24_comm.c ****     ce_high();
 504              		.loc 1 200 5 view .LVU121
 505 0098 FFF7FEFF 		bl	ce_high
 506              	.LVL73:
 201:Bsp/Src/nrf24_comm.c ****     
 202:Bsp/Src/nrf24_comm.c ****     // Test communication
 203:Bsp/Src/nrf24_comm.c ****     HAL_Delay(10);
 507              		.loc 1 203 5 view .LVU122
 508 009c 0A20     		movs	r0, #10
 509 009e FFF7FEFF 		bl	HAL_Delay
 510              	.LVL74:
 204:Bsp/Src/nrf24_comm.c ****     bool comm_test = NRF24_Comm_TestCommunication();
 511              		.loc 1 204 5 view .LVU123
 512              		.loc 1 204 22 is_stmt 0 view .LVU124
 513 00a2 FFF7FEFF 		bl	NRF24_Comm_TestCommunication
 514              	.LVL75:
ARM GAS  C:\Users\l1234\AppData\Local\Temp\ccTmlPda.s 			page 14


 515 00a6 0446     		mov	r4, r0
 516              	.LVL76:
 205:Bsp/Src/nrf24_comm.c ****     
 206:Bsp/Src/nrf24_comm.c ****     nrf24_status.initialized = true;
 517              		.loc 1 206 5 is_stmt 1 view .LVU125
 518              		.loc 1 206 30 is_stmt 0 view .LVU126
 519 00a8 0B4B     		ldr	r3, .L34
 520 00aa 0122     		movs	r2, #1
 521 00ac 1A70     		strb	r2, [r3]
 207:Bsp/Src/nrf24_comm.c ****     nrf24_status.communication_ok = comm_test;
 522              		.loc 1 207 5 is_stmt 1 view .LVU127
 523              		.loc 1 207 35 is_stmt 0 view .LVU128
 524 00ae 5870     		strb	r0, [r3, #1]
 208:Bsp/Src/nrf24_comm.c ****     
 209:Bsp/Src/nrf24_comm.c ****     // Provide audio feedback
 210:Bsp/Src/nrf24_comm.c ****     if (comm_test) {
 525              		.loc 1 210 5 is_stmt 1 view .LVU129
 526              		.loc 1 210 8 is_stmt 0 view .LVU130
 527 00b0 50B1     		cbz	r0, .L31
 211:Bsp/Src/nrf24_comm.c ****         // Two quick beeps = successful initialization
 212:Bsp/Src/nrf24_comm.c ****         NRF24_Comm_BuzzerDoubleBeep();
 528              		.loc 1 212 9 is_stmt 1 view .LVU131
 529 00b2 FFF7FEFF 		bl	NRF24_Comm_BuzzerDoubleBeep
 530              	.LVL77:
 213:Bsp/Src/nrf24_comm.c ****         status_feedback_pending = false;
 531              		.loc 1 213 9 view .LVU132
 532              		.loc 1 213 33 is_stmt 0 view .LVU133
 533 00b6 0A4B     		ldr	r3, .L34+8
 534 00b8 0022     		movs	r2, #0
 535 00ba 1A70     		strb	r2, [r3]
 536              	.L32:
 214:Bsp/Src/nrf24_comm.c ****     } else {
 215:Bsp/Src/nrf24_comm.c ****         // Long beep = initialization failed
 216:Bsp/Src/nrf24_comm.c ****         NRF24_Comm_BuzzerBeep(500);
 217:Bsp/Src/nrf24_comm.c ****         status_feedback_pending = true;
 218:Bsp/Src/nrf24_comm.c ****     }
 219:Bsp/Src/nrf24_comm.c ****     
 220:Bsp/Src/nrf24_comm.c ****     last_feedback_time = HAL_GetTick();
 537              		.loc 1 220 5 is_stmt 1 view .LVU134
 538              		.loc 1 220 26 is_stmt 0 view .LVU135
 539 00bc FFF7FEFF 		bl	HAL_GetTick
 540              	.LVL78:
 541              		.loc 1 220 24 view .LVU136
 542 00c0 084B     		ldr	r3, .L34+12
 543 00c2 1860     		str	r0, [r3]
 221:Bsp/Src/nrf24_comm.c ****     
 222:Bsp/Src/nrf24_comm.c ****     return comm_test;
 544              		.loc 1 222 5 is_stmt 1 view .LVU137
 223:Bsp/Src/nrf24_comm.c **** }
 545              		.loc 1 223 1 is_stmt 0 view .LVU138
 546 00c4 2046     		mov	r0, r4
 547 00c6 38BD     		pop	{r3, r4, r5, pc}
 548              	.LVL79:
 549              	.L31:
 216:Bsp/Src/nrf24_comm.c ****         status_feedback_pending = true;
 550              		.loc 1 216 9 is_stmt 1 view .LVU139
 551 00c8 4FF4FA70 		mov	r0, #500
ARM GAS  C:\Users\l1234\AppData\Local\Temp\ccTmlPda.s 			page 15


 552              	.LVL80:
 216:Bsp/Src/nrf24_comm.c ****         status_feedback_pending = true;
 553              		.loc 1 216 9 is_stmt 0 view .LVU140
 554 00cc FFF7FEFF 		bl	NRF24_Comm_BuzzerBeep
 555              	.LVL81:
 217:Bsp/Src/nrf24_comm.c ****     }
 556              		.loc 1 217 9 is_stmt 1 view .LVU141
 217:Bsp/Src/nrf24_comm.c ****     }
 557              		.loc 1 217 33 is_stmt 0 view .LVU142
 558 00d0 034B     		ldr	r3, .L34+8
 559 00d2 0122     		movs	r2, #1
 560 00d4 1A70     		strb	r2, [r3]
 561 00d6 F1E7     		b	.L32
 562              	.L35:
 563              		.align	2
 564              	.L34:
 565 00d8 00000000 		.word	nrf24_status
 566 00dc 00000000 		.word	tx_addr
 567 00e0 00000000 		.word	status_feedback_pending
 568 00e4 00000000 		.word	last_feedback_time
 569              		.cfi_endproc
 570              	.LFE70:
 572              		.section	.text.NRF24_Comm_CanLocalControlWrite,"ax",%progbits
 573              		.align	1
 574              		.global	NRF24_Comm_CanLocalControlWrite
 575              		.syntax unified
 576              		.thumb
 577              		.thumb_func
 579              	NRF24_Comm_CanLocalControlWrite:
 580              	.LFB71:
 224:Bsp/Src/nrf24_comm.c **** 
 225:Bsp/Src/nrf24_comm.c **** bool NRF24_Comm_CanLocalControlWrite(void)
 226:Bsp/Src/nrf24_comm.c **** {
 581              		.loc 1 226 1 is_stmt 1 view -0
 582              		.cfi_startproc
 583              		@ args = 0, pretend = 0, frame = 0
 584              		@ frame_needed = 0, uses_anonymous_args = 0
 585              		@ link register save eliminated.
 227:Bsp/Src/nrf24_comm.c ****     return (nrf24_status.control_mode == CONTROL_MODE_JOYSTICK);
 586              		.loc 1 227 5 view .LVU144
 587              		.loc 1 227 25 is_stmt 0 view .LVU145
 588 0000 024B     		ldr	r3, .L37
 589 0002 187C     		ldrb	r0, [r3, #16]	@ zero_extendqisi2
 228:Bsp/Src/nrf24_comm.c **** }
 590              		.loc 1 228 1 view .LVU146
 591 0004 B0FA80F0 		clz	r0, r0
 592 0008 4009     		lsrs	r0, r0, #5
 593 000a 7047     		bx	lr
 594              	.L38:
 595              		.align	2
 596              	.L37:
 597 000c 00000000 		.word	nrf24_status
 598              		.cfi_endproc
 599              	.LFE71:
 601              		.section	.text.NRF24_Comm_UpdateTxBuffer,"ax",%progbits
 602              		.align	1
 603              		.global	NRF24_Comm_UpdateTxBuffer
ARM GAS  C:\Users\l1234\AppData\Local\Temp\ccTmlPda.s 			page 16


 604              		.syntax unified
 605              		.thumb
 606              		.thumb_func
 608              	NRF24_Comm_UpdateTxBuffer:
 609              	.LVL82:
 610              	.LFB72:
 229:Bsp/Src/nrf24_comm.c **** 
 230:Bsp/Src/nrf24_comm.c **** /**
 231:Bsp/Src/nrf24_comm.c ****   * @brief  Update TX buffer with new data
 232:Bsp/Src/nrf24_comm.c ****   * @param  adc_values: Array of 4 ADC values
 233:Bsp/Src/nrf24_comm.c ****   * @param  aux1: AUX1 button state
 234:Bsp/Src/nrf24_comm.c ****   * @param  aux2: AUX2 button state
 235:Bsp/Src/nrf24_comm.c ****   * @retval None
 236:Bsp/Src/nrf24_comm.c ****   */
 237:Bsp/Src/nrf24_comm.c **** void NRF24_Comm_UpdateTxBuffer(uint16_t adc_values[4], uint8_t aux1, uint8_t aux2)
 238:Bsp/Src/nrf24_comm.c **** {
 611              		.loc 1 238 1 is_stmt 1 view -0
 612              		.cfi_startproc
 613              		@ args = 0, pretend = 0, frame = 0
 614              		@ frame_needed = 0, uses_anonymous_args = 0
 615              		.loc 1 238 1 is_stmt 0 view .LVU148
 616 0000 2DE9F84F 		push	{r3, r4, r5, r6, r7, r8, r9, r10, fp, lr}
 617              	.LCFI5:
 618              		.cfi_def_cfa_offset 40
 619              		.cfi_offset 3, -40
 620              		.cfi_offset 4, -36
 621              		.cfi_offset 5, -32
 622              		.cfi_offset 6, -28
 623              		.cfi_offset 7, -24
 624              		.cfi_offset 8, -20
 625              		.cfi_offset 9, -16
 626              		.cfi_offset 10, -12
 627              		.cfi_offset 11, -8
 628              		.cfi_offset 14, -4
 629 0004 0446     		mov	r4, r0
 630 0006 0E46     		mov	r6, r1
 631 0008 1546     		mov	r5, r2
 239:Bsp/Src/nrf24_comm.c ****     // Only update if in joystick control mode
 240:Bsp/Src/nrf24_comm.c ****     if (!NRF24_Comm_CanLocalControlWrite()) {
 632              		.loc 1 240 5 is_stmt 1 view .LVU149
 633              		.loc 1 240 10 is_stmt 0 view .LVU150
 634 000a FFF7FEFF 		bl	NRF24_Comm_CanLocalControlWrite
 635              	.LVL83:
 636              		.loc 1 240 8 view .LVU151
 637 000e 0028     		cmp	r0, #0
 638 0010 78D0     		beq	.L39
 241:Bsp/Src/nrf24_comm.c ****         return;
 242:Bsp/Src/nrf24_comm.c ****     }
 243:Bsp/Src/nrf24_comm.c ****     
 244:Bsp/Src/nrf24_comm.c ****     // Map joystick channels to velocities with physical units and store in monitoring buffer
 245:Bsp/Src/nrf24_comm.c ****     physical_remapped_adc.angular_vel = map_adc_to_velocity(adc_values[0], MAX_ANGULAR_VEL);
 639              		.loc 1 245 5 is_stmt 1 view .LVU152
 640              		.loc 1 245 41 is_stmt 0 view .LVU153
 641 0012 4FF08141 		mov	r1, #1082130432
 642 0016 2088     		ldrh	r0, [r4]
 643 0018 FFF7FEFF 		bl	map_adc_to_velocity
 644              	.LVL84:
ARM GAS  C:\Users\l1234\AppData\Local\Temp\ccTmlPda.s 			page 17


 645 001c 0746     		mov	r7, r0
 646              		.loc 1 245 39 view .LVU154
 647 001e DFF8FCB0 		ldr	fp, .L66
 648 0022 CBF80800 		str	r0, [fp, #8]	@ float
 246:Bsp/Src/nrf24_comm.c ****     physical_remapped_adc.forward_vel = map_adc_to_velocity(adc_values[2], MAX_FORWARD_VEL);
 649              		.loc 1 246 5 is_stmt 1 view .LVU155
 650              		.loc 1 246 41 is_stmt 0 view .LVU156
 651 0026 4FF0804A 		mov	r10, #1073741824
 652 002a 5146     		mov	r1, r10
 653 002c A088     		ldrh	r0, [r4, #4]
 654 002e FFF7FEFF 		bl	map_adc_to_velocity
 655              	.LVL85:
 656 0032 8146     		mov	r9, r0
 657              		.loc 1 246 39 view .LVU157
 658 0034 CBF80000 		str	r0, [fp]	@ float
 247:Bsp/Src/nrf24_comm.c ****     physical_remapped_adc.left_vel = map_adc_to_velocity(adc_values[3], MAX_LEFT_VEL);
 659              		.loc 1 247 5 is_stmt 1 view .LVU158
 660              		.loc 1 247 38 is_stmt 0 view .LVU159
 661 0038 5146     		mov	r1, r10
 662 003a E088     		ldrh	r0, [r4, #6]
 663 003c FFF7FEFF 		bl	map_adc_to_velocity
 664              	.LVL86:
 665 0040 8046     		mov	r8, r0
 666              		.loc 1 247 36 view .LVU160
 667 0042 CBF80400 		str	r0, [fp, #4]	@ float
 248:Bsp/Src/nrf24_comm.c ****     
 249:Bsp/Src/nrf24_comm.c ****     // Ensure values are within physical limits
 250:Bsp/Src/nrf24_comm.c ****     if (physical_remapped_adc.forward_vel > MAX_FORWARD_VEL) 
 668              		.loc 1 250 5 is_stmt 1 view .LVU161
 669              		.loc 1 250 8 is_stmt 0 view .LVU162
 670 0046 5146     		mov	r1, r10
 671 0048 4846     		mov	r0, r9
 672 004a FFF7FEFF 		bl	__aeabi_fcmpgt
 673              	.LVL87:
 674 004e 08B1     		cbz	r0, .L41
 251:Bsp/Src/nrf24_comm.c ****         physical_remapped_adc.forward_vel = MAX_FORWARD_VEL;
 675              		.loc 1 251 9 is_stmt 1 view .LVU163
 676              		.loc 1 251 43 is_stmt 0 view .LVU164
 677 0050 CBF800A0 		str	r10, [fp]	@ float
 678              	.L41:
 252:Bsp/Src/nrf24_comm.c ****     if (physical_remapped_adc.forward_vel < -MAX_FORWARD_VEL) 
 679              		.loc 1 252 5 is_stmt 1 view .LVU165
 680              		.loc 1 252 8 is_stmt 0 view .LVU166
 681 0054 4FF04041 		mov	r1, #-1073741824
 682 0058 304B     		ldr	r3, .L66
 683 005a 1868     		ldr	r0, [r3]	@ float
 684 005c FFF7FEFF 		bl	__aeabi_fcmplt
 685              	.LVL88:
 686 0060 18B1     		cbz	r0, .L43
 253:Bsp/Src/nrf24_comm.c ****         physical_remapped_adc.forward_vel = -MAX_FORWARD_VEL;
 687              		.loc 1 253 9 is_stmt 1 view .LVU167
 688              		.loc 1 253 43 is_stmt 0 view .LVU168
 689 0062 2E4B     		ldr	r3, .L66
 690 0064 4FF04042 		mov	r2, #-1073741824
 691 0068 1A60     		str	r2, [r3]	@ float
 692              	.L43:
 254:Bsp/Src/nrf24_comm.c ****         
ARM GAS  C:\Users\l1234\AppData\Local\Temp\ccTmlPda.s 			page 18


 255:Bsp/Src/nrf24_comm.c ****     if (physical_remapped_adc.left_vel > MAX_LEFT_VEL)
 693              		.loc 1 255 5 is_stmt 1 view .LVU169
 694              		.loc 1 255 8 is_stmt 0 view .LVU170
 695 006a 4FF08041 		mov	r1, #1073741824
 696 006e 4046     		mov	r0, r8
 697 0070 FFF7FEFF 		bl	__aeabi_fcmpgt
 698              	.LVL89:
 699 0074 18B1     		cbz	r0, .L45
 256:Bsp/Src/nrf24_comm.c ****         physical_remapped_adc.left_vel = MAX_LEFT_VEL;
 700              		.loc 1 256 9 is_stmt 1 view .LVU171
 701              		.loc 1 256 40 is_stmt 0 view .LVU172
 702 0076 294B     		ldr	r3, .L66
 703 0078 4FF08042 		mov	r2, #1073741824
 704 007c 5A60     		str	r2, [r3, #4]	@ float
 705              	.L45:
 257:Bsp/Src/nrf24_comm.c ****     if (physical_remapped_adc.left_vel < -MAX_LEFT_VEL)
 706              		.loc 1 257 5 is_stmt 1 view .LVU173
 707              		.loc 1 257 8 is_stmt 0 view .LVU174
 708 007e 4FF04041 		mov	r1, #-1073741824
 709 0082 264B     		ldr	r3, .L66
 710 0084 5868     		ldr	r0, [r3, #4]	@ float
 711 0086 FFF7FEFF 		bl	__aeabi_fcmplt
 712              	.LVL90:
 713 008a 18B1     		cbz	r0, .L47
 258:Bsp/Src/nrf24_comm.c ****         physical_remapped_adc.left_vel = -MAX_LEFT_VEL;
 714              		.loc 1 258 9 is_stmt 1 view .LVU175
 715              		.loc 1 258 40 is_stmt 0 view .LVU176
 716 008c 234B     		ldr	r3, .L66
 717 008e 4FF04042 		mov	r2, #-1073741824
 718 0092 5A60     		str	r2, [r3, #4]	@ float
 719              	.L47:
 259:Bsp/Src/nrf24_comm.c ****         
 260:Bsp/Src/nrf24_comm.c ****     if (physical_remapped_adc.angular_vel > MAX_ANGULAR_VEL)
 720              		.loc 1 260 5 is_stmt 1 view .LVU177
 721              		.loc 1 260 8 is_stmt 0 view .LVU178
 722 0094 4FF08141 		mov	r1, #1082130432
 723 0098 3846     		mov	r0, r7
 724 009a FFF7FEFF 		bl	__aeabi_fcmpgt
 725              	.LVL91:
 726 009e 18B1     		cbz	r0, .L49
 261:Bsp/Src/nrf24_comm.c ****         physical_remapped_adc.angular_vel = MAX_ANGULAR_VEL;
 727              		.loc 1 261 9 is_stmt 1 view .LVU179
 728              		.loc 1 261 43 is_stmt 0 view .LVU180
 729 00a0 1E4B     		ldr	r3, .L66
 730 00a2 4FF08142 		mov	r2, #1082130432
 731 00a6 9A60     		str	r2, [r3, #8]	@ float
 732              	.L49:
 262:Bsp/Src/nrf24_comm.c ****     if (physical_remapped_adc.angular_vel < -MAX_ANGULAR_VEL)
 733              		.loc 1 262 5 is_stmt 1 view .LVU181
 734              		.loc 1 262 8 is_stmt 0 view .LVU182
 735 00a8 1D49     		ldr	r1, .L66+4
 736 00aa 1C4B     		ldr	r3, .L66
 737 00ac 9868     		ldr	r0, [r3, #8]	@ float
 738 00ae FFF7FEFF 		bl	__aeabi_fcmplt
 739              	.LVL92:
 740 00b2 10B1     		cbz	r0, .L51
 263:Bsp/Src/nrf24_comm.c ****         physical_remapped_adc.angular_vel = -MAX_ANGULAR_VEL;
ARM GAS  C:\Users\l1234\AppData\Local\Temp\ccTmlPda.s 			page 19


 741              		.loc 1 263 9 is_stmt 1 view .LVU183
 742              		.loc 1 263 43 is_stmt 0 view .LVU184
 743 00b4 194B     		ldr	r3, .L66
 744 00b6 1A4A     		ldr	r2, .L66+4
 745 00b8 9A60     		str	r2, [r3, #8]	@ float
 746              	.L51:
 264:Bsp/Src/nrf24_comm.c ****     
 265:Bsp/Src/nrf24_comm.c ****     // Convert to float16 format
 266:Bsp/Src/nrf24_comm.c ****     tx_buffer.angular_vel = float32_to_float16(physical_remapped_adc.angular_vel);
 747              		.loc 1 266 5 is_stmt 1 view .LVU185
 748              		.loc 1 266 29 is_stmt 0 view .LVU186
 749 00ba DFF86080 		ldr	r8, .L66
 750 00be D8F80800 		ldr	r0, [r8, #8]	@ float
 751 00c2 FFF7FEFF 		bl	float32_to_float16
 752              	.LVL93:
 753              		.loc 1 266 27 view .LVU187
 754 00c6 174F     		ldr	r7, .L66+8
 755 00c8 A7F80500 		strh	r0, [r7, #5]	@ unaligned
 267:Bsp/Src/nrf24_comm.c ****     tx_buffer.forward_vel = float32_to_float16(physical_remapped_adc.forward_vel);
 756              		.loc 1 267 5 is_stmt 1 view .LVU188
 757              		.loc 1 267 29 is_stmt 0 view .LVU189
 758 00cc D8F80000 		ldr	r0, [r8]	@ float
 759 00d0 FFF7FEFF 		bl	float32_to_float16
 760              	.LVL94:
 761              		.loc 1 267 27 view .LVU190
 762 00d4 A7F80100 		strh	r0, [r7, #1]	@ unaligned
 268:Bsp/Src/nrf24_comm.c ****     tx_buffer.left_vel = float32_to_float16(physical_remapped_adc.left_vel);
 763              		.loc 1 268 5 is_stmt 1 view .LVU191
 764              		.loc 1 268 26 is_stmt 0 view .LVU192
 765 00d8 D8F80400 		ldr	r0, [r8, #4]	@ float
 766 00dc FFF7FEFF 		bl	float32_to_float16
 767              	.LVL95:
 768              		.loc 1 268 24 view .LVU193
 769 00e0 A7F80300 		strh	r0, [r7, #3]	@ unaligned
 269:Bsp/Src/nrf24_comm.c ****     
 270:Bsp/Src/nrf24_comm.c ****     // Map Channel 1 to dribbler (bits 15:14 for state, 13:0 for speed)
 271:Bsp/Src/nrf24_comm.c ****     uint16_t dribbler_val = adc_values[1];
 770              		.loc 1 271 5 is_stmt 1 view .LVU194
 771              		.loc 1 271 14 is_stmt 0 view .LVU195
 772 00e4 6388     		ldrh	r3, [r4, #2]
 773              	.LVL96:
 272:Bsp/Src/nrf24_comm.c ****     if (dribbler_val > 2048) {  // Above center means active
 774              		.loc 1 272 5 is_stmt 1 view .LVU196
 775              		.loc 1 272 8 is_stmt 0 view .LVU197
 776 00e6 B3F5006F 		cmp	r3, #2048
 777 00ea 0DD9     		bls	.L53
 273:Bsp/Src/nrf24_comm.c ****         tx_buffer.dribbler = 0xC000 | (dribbler_val & 0x3FFF);  // Set state bits to 11
 778              		.loc 1 273 9 is_stmt 1 view .LVU198
 779              		.loc 1 273 37 is_stmt 0 view .LVU199
 780 00ec 43F44043 		orr	r3, r3, #49152
 781              	.LVL97:
 782              		.loc 1 273 28 view .LVU200
 783 00f0 A7F80730 		strh	r3, [r7, #7]	@ unaligned
 784              	.LVL98:
 785              	.L54:
 274:Bsp/Src/nrf24_comm.c ****     } else {
 275:Bsp/Src/nrf24_comm.c ****         tx_buffer.dribbler = 0x0000;  // Dribbler off
ARM GAS  C:\Users\l1234\AppData\Local\Temp\ccTmlPda.s 			page 20


 276:Bsp/Src/nrf24_comm.c ****     }
 277:Bsp/Src/nrf24_comm.c ****     
 278:Bsp/Src/nrf24_comm.c ****     // Map AUX buttons to kicker values
 279:Bsp/Src/nrf24_comm.c ****     tx_buffer.kickers = (aux1 ? 0xF0 : 0x00) | (aux2 ? 0x0F : 0x00);
 786              		.loc 1 279 5 is_stmt 1 view .LVU201
 787              		.loc 1 279 46 is_stmt 0 view .LVU202
 788 00f4 6EB1     		cbz	r6, .L57
 789 00f6 6FF00F03 		mvn	r3, #15
 790              	.L55:
 791              		.loc 1 279 46 discriminator 4 view .LVU203
 792 00fa 65B1     		cbz	r5, .L58
 793              		.loc 1 279 46 view .LVU204
 794 00fc 0F22     		movs	r2, #15
 795              	.L56:
 796              		.loc 1 279 46 discriminator 8 view .LVU205
 797 00fe 1343     		orrs	r3, r3, r2
 798              		.loc 1 279 23 discriminator 8 view .LVU206
 799 0100 084A     		ldr	r2, .L66+8
 800 0102 5372     		strb	r3, [r2, #9]
 801              	.LVL99:
 802              	.L39:
 280:Bsp/Src/nrf24_comm.c **** }
 803              		.loc 1 280 1 view .LVU207
 804 0104 BDE8F88F 		pop	{r3, r4, r5, r6, r7, r8, r9, r10, fp, pc}
 805              	.LVL100:
 806              	.L53:
 275:Bsp/Src/nrf24_comm.c ****     }
 807              		.loc 1 275 9 is_stmt 1 view .LVU208
 275:Bsp/Src/nrf24_comm.c ****     }
 808              		.loc 1 275 28 is_stmt 0 view .LVU209
 809 0108 064B     		ldr	r3, .L66+8
 810              	.LVL101:
 275:Bsp/Src/nrf24_comm.c ****     }
 811              		.loc 1 275 28 view .LVU210
 812 010a 0022     		movs	r2, #0
 813 010c DA71     		strb	r2, [r3, #7]
 814              	.LVL102:
 275:Bsp/Src/nrf24_comm.c ****     }
 815              		.loc 1 275 28 view .LVU211
 816 010e 1A72     		strb	r2, [r3, #8]
 817 0110 F0E7     		b	.L54
 818              	.L57:
 279:Bsp/Src/nrf24_comm.c **** }
 819              		.loc 1 279 46 view .LVU212
 820 0112 0023     		movs	r3, #0
 821 0114 F1E7     		b	.L55
 822              	.L58:
 823 0116 0022     		movs	r2, #0
 824 0118 F1E7     		b	.L56
 825              	.L67:
 826 011a 00BF     		.align	2
 827              	.L66:
 828 011c 00000000 		.word	physical_remapped_adc
 829 0120 000080C0 		.word	-1065353216
 830 0124 00000000 		.word	tx_buffer
 831              		.cfi_endproc
 832              	.LFE72:
ARM GAS  C:\Users\l1234\AppData\Local\Temp\ccTmlPda.s 			page 21


 834              		.section	.text.NRF24_Comm_UpdateFromUART,"ax",%progbits
 835              		.align	1
 836              		.global	NRF24_Comm_UpdateFromUART
 837              		.syntax unified
 838              		.thumb
 839              		.thumb_func
 841              	NRF24_Comm_UpdateFromUART:
 842              	.LVL103:
 843              	.LFB73:
 281:Bsp/Src/nrf24_comm.c **** 
 282:Bsp/Src/nrf24_comm.c **** /**
 283:Bsp/Src/nrf24_comm.c ****   * @brief  Update from UART
 284:Bsp/Src/nrf24_comm.c ****   * @param  uart_data: Pointer to UART data
 285:Bsp/Src/nrf24_comm.c ****   * @retval None
 286:Bsp/Src/nrf24_comm.c ****   */
 287:Bsp/Src/nrf24_comm.c **** void NRF24_Comm_UpdateFromUART(uint8_t* uart_data)
 288:Bsp/Src/nrf24_comm.c **** {
 844              		.loc 1 288 1 is_stmt 1 view -0
 845              		.cfi_startproc
 846              		@ args = 0, pretend = 0, frame = 0
 847              		@ frame_needed = 0, uses_anonymous_args = 0
 848              		.loc 1 288 1 is_stmt 0 view .LVU214
 849 0000 38B5     		push	{r3, r4, r5, lr}
 850              	.LCFI6:
 851              		.cfi_def_cfa_offset 16
 852              		.cfi_offset 3, -16
 853              		.cfi_offset 4, -12
 854              		.cfi_offset 5, -8
 855              		.cfi_offset 14, -4
 289:Bsp/Src/nrf24_comm.c ****     // Verify frame markers
 290:Bsp/Src/nrf24_comm.c ****     if (uart_data[0] != FRAME_HEAD || uart_data[11] != FRAME_END) {
 856              		.loc 1 290 5 is_stmt 1 view .LVU215
 857              		.loc 1 290 18 is_stmt 0 view .LVU216
 858 0002 0378     		ldrb	r3, [r0]	@ zero_extendqisi2
 859              		.loc 1 290 8 view .LVU217
 860 0004 AA2B     		cmp	r3, #170
 861 0006 03D1     		bne	.L68
 862 0008 0446     		mov	r4, r0
 863              		.loc 1 290 48 discriminator 1 view .LVU218
 864 000a C37A     		ldrb	r3, [r0, #11]	@ zero_extendqisi2
 865              		.loc 1 290 36 discriminator 1 view .LVU219
 866 000c 552B     		cmp	r3, #85
 867 000e 00D0     		beq	.L71
 868              	.LVL104:
 869              	.L68:
 291:Bsp/Src/nrf24_comm.c ****         return;
 292:Bsp/Src/nrf24_comm.c ****     }
 293:Bsp/Src/nrf24_comm.c ****     
 294:Bsp/Src/nrf24_comm.c ****     // Switch to UART control mode and update timestamp
 295:Bsp/Src/nrf24_comm.c ****     nrf24_status.control_mode = CONTROL_MODE_UPLEVEL_UART;
 296:Bsp/Src/nrf24_comm.c ****     nrf24_status.last_uart_time = HAL_GetTick();
 297:Bsp/Src/nrf24_comm.c ****     
 298:Bsp/Src/nrf24_comm.c ****     // Copy data from UART buffer to TX buffer (skipping frame markers)
 299:Bsp/Src/nrf24_comm.c ****     memcpy(&tx_buffer, uart_data + 1, NRF24_TX_BUFFER_SIZE);
 300:Bsp/Src/nrf24_comm.c **** }
 870              		.loc 1 300 1 view .LVU220
 871 0010 38BD     		pop	{r3, r4, r5, pc}
ARM GAS  C:\Users\l1234\AppData\Local\Temp\ccTmlPda.s 			page 22


 872              	.LVL105:
 873              	.L71:
 295:Bsp/Src/nrf24_comm.c ****     nrf24_status.last_uart_time = HAL_GetTick();
 874              		.loc 1 295 5 is_stmt 1 view .LVU221
 295:Bsp/Src/nrf24_comm.c ****     nrf24_status.last_uart_time = HAL_GetTick();
 875              		.loc 1 295 31 is_stmt 0 view .LVU222
 876 0012 084D     		ldr	r5, .L72
 877 0014 0123     		movs	r3, #1
 878 0016 2B74     		strb	r3, [r5, #16]
 296:Bsp/Src/nrf24_comm.c ****     
 879              		.loc 1 296 5 is_stmt 1 view .LVU223
 296:Bsp/Src/nrf24_comm.c ****     
 880              		.loc 1 296 35 is_stmt 0 view .LVU224
 881 0018 FFF7FEFF 		bl	HAL_GetTick
 882              	.LVL106:
 296:Bsp/Src/nrf24_comm.c ****     
 883              		.loc 1 296 33 view .LVU225
 884 001c 6861     		str	r0, [r5, #20]
 299:Bsp/Src/nrf24_comm.c **** }
 885              		.loc 1 299 5 is_stmt 1 view .LVU226
 886 001e 064B     		ldr	r3, .L72+4
 887 0020 D4F80100 		ldr	r0, [r4, #1]	@ unaligned
 888 0024 D4F80510 		ldr	r1, [r4, #5]	@ unaligned
 889 0028 03C3     		stmia	r3!, {r0, r1}
 890 002a B4F80920 		ldrh	r2, [r4, #9]	@ unaligned
 891 002e 1A80     		strh	r2, [r3]	@ unaligned
 892 0030 EEE7     		b	.L68
 893              	.L73:
 894 0032 00BF     		.align	2
 895              	.L72:
 896 0034 00000000 		.word	nrf24_status
 897 0038 00000000 		.word	tx_buffer
 898              		.cfi_endproc
 899              	.LFE73:
 901              		.section	.text.NRF24_Comm_UpdateRobotID,"ax",%progbits
 902              		.align	1
 903              		.global	NRF24_Comm_UpdateRobotID
 904              		.syntax unified
 905              		.thumb
 906              		.thumb_func
 908              	NRF24_Comm_UpdateRobotID:
 909              	.LVL107:
 910              	.LFB74:
 301:Bsp/Src/nrf24_comm.c **** 
 302:Bsp/Src/nrf24_comm.c **** /**
 303:Bsp/Src/nrf24_comm.c ****   * @brief  Update robot ID
 304:Bsp/Src/nrf24_comm.c ****   * @param  increment: True to increment, False to decrement
 305:Bsp/Src/nrf24_comm.c ****   * @retval None
 306:Bsp/Src/nrf24_comm.c ****   */
 307:Bsp/Src/nrf24_comm.c **** void NRF24_Comm_UpdateRobotID(bool increment)
 308:Bsp/Src/nrf24_comm.c **** {
 911              		.loc 1 308 1 view -0
 912              		.cfi_startproc
 913              		@ args = 0, pretend = 0, frame = 0
 914              		@ frame_needed = 0, uses_anonymous_args = 0
 915              		@ link register save eliminated.
 309:Bsp/Src/nrf24_comm.c ****     if (increment) {
ARM GAS  C:\Users\l1234\AppData\Local\Temp\ccTmlPda.s 			page 23


 916              		.loc 1 309 5 view .LVU228
 917              		.loc 1 309 8 is_stmt 0 view .LVU229
 918 0000 78B1     		cbz	r0, .L75
 310:Bsp/Src/nrf24_comm.c ****         current_robot_id = (current_robot_id + 1) % MAX_ROBOT_NUMBER;
 919              		.loc 1 310 9 is_stmt 1 view .LVU230
 920              		.loc 1 310 46 is_stmt 0 view .LVU231
 921 0002 0E49     		ldr	r1, .L78
 922 0004 0B78     		ldrb	r3, [r1]	@ zero_extendqisi2
 923 0006 0133     		adds	r3, r3, #1
 924              		.loc 1 310 51 view .LVU232
 925 0008 0D4A     		ldr	r2, .L78+4
 926 000a 1278     		ldrb	r2, [r2]	@ zero_extendqisi2
 927 000c D2B2     		uxtb	r2, r2
 928 000e 93FBF2F0 		sdiv	r0, r3, r2
 929              	.LVL108:
 930              		.loc 1 310 51 view .LVU233
 931 0012 02FB1033 		mls	r3, r2, r0, r3
 932              		.loc 1 310 26 view .LVU234
 933 0016 0B70     		strb	r3, [r1]
 934              	.L76:
 311:Bsp/Src/nrf24_comm.c ****     } else {
 312:Bsp/Src/nrf24_comm.c ****         // For decrement, handle underflow by wrapping around
 313:Bsp/Src/nrf24_comm.c ****         if (current_robot_id == 0) {
 314:Bsp/Src/nrf24_comm.c ****             current_robot_id = MAX_ROBOT_NUMBER - 1;
 315:Bsp/Src/nrf24_comm.c ****         } else {
 316:Bsp/Src/nrf24_comm.c ****             current_robot_id--;
 317:Bsp/Src/nrf24_comm.c ****         }
 318:Bsp/Src/nrf24_comm.c ****     }
 319:Bsp/Src/nrf24_comm.c ****     
 320:Bsp/Src/nrf24_comm.c ****     tx_buffer.robot_id = current_robot_id;
 935              		.loc 1 320 5 is_stmt 1 view .LVU235
 936              		.loc 1 320 24 is_stmt 0 view .LVU236
 937 0018 084B     		ldr	r3, .L78
 938 001a 1A78     		ldrb	r2, [r3]	@ zero_extendqisi2
 939 001c 094B     		ldr	r3, .L78+8
 940 001e 1A70     		strb	r2, [r3]
 321:Bsp/Src/nrf24_comm.c **** }
 941              		.loc 1 321 1 view .LVU237
 942 0020 7047     		bx	lr
 943              	.LVL109:
 944              	.L75:
 313:Bsp/Src/nrf24_comm.c ****             current_robot_id = MAX_ROBOT_NUMBER - 1;
 945              		.loc 1 313 9 is_stmt 1 view .LVU238
 313:Bsp/Src/nrf24_comm.c ****             current_robot_id = MAX_ROBOT_NUMBER - 1;
 946              		.loc 1 313 30 is_stmt 0 view .LVU239
 947 0022 064B     		ldr	r3, .L78
 948 0024 1B78     		ldrb	r3, [r3]	@ zero_extendqisi2
 313:Bsp/Src/nrf24_comm.c ****             current_robot_id = MAX_ROBOT_NUMBER - 1;
 949              		.loc 1 313 12 view .LVU240
 950 0026 2BB9     		cbnz	r3, .L77
 314:Bsp/Src/nrf24_comm.c ****         } else {
 951              		.loc 1 314 13 is_stmt 1 view .LVU241
 314:Bsp/Src/nrf24_comm.c ****         } else {
 952              		.loc 1 314 49 is_stmt 0 view .LVU242
 953 0028 054B     		ldr	r3, .L78+4
 954 002a 1B78     		ldrb	r3, [r3]	@ zero_extendqisi2
 955 002c 013B     		subs	r3, r3, #1
ARM GAS  C:\Users\l1234\AppData\Local\Temp\ccTmlPda.s 			page 24


 314:Bsp/Src/nrf24_comm.c ****         } else {
 956              		.loc 1 314 30 view .LVU243
 957 002e 034A     		ldr	r2, .L78
 958 0030 1370     		strb	r3, [r2]
 959 0032 F1E7     		b	.L76
 960              	.L77:
 316:Bsp/Src/nrf24_comm.c ****         }
 961              		.loc 1 316 13 is_stmt 1 view .LVU244
 316:Bsp/Src/nrf24_comm.c ****         }
 962              		.loc 1 316 29 is_stmt 0 view .LVU245
 963 0034 013B     		subs	r3, r3, #1
 964 0036 014A     		ldr	r2, .L78
 965 0038 1370     		strb	r3, [r2]
 966 003a EDE7     		b	.L76
 967              	.L79:
 968              		.align	2
 969              	.L78:
 970 003c 00000000 		.word	current_robot_id
 971 0040 00000000 		.word	MAX_ROBOT_NUMBER
 972 0044 00000000 		.word	tx_buffer
 973              		.cfi_endproc
 974              	.LFE74:
 976              		.section	.text.NRF24_Comm_Transmit,"ax",%progbits
 977              		.align	1
 978              		.global	NRF24_Comm_Transmit
 979              		.syntax unified
 980              		.thumb
 981              		.thumb_func
 983              	NRF24_Comm_Transmit:
 984              	.LFB75:
 322:Bsp/Src/nrf24_comm.c **** 
 323:Bsp/Src/nrf24_comm.c **** /**
 324:Bsp/Src/nrf24_comm.c ****   * @brief  Transmit current TX buffer data
 325:Bsp/Src/nrf24_comm.c ****   * @retval bool: true if transmission successful
 326:Bsp/Src/nrf24_comm.c ****   */
 327:Bsp/Src/nrf24_comm.c **** bool NRF24_Comm_Transmit(void)
 328:Bsp/Src/nrf24_comm.c **** {
 985              		.loc 1 328 1 is_stmt 1 view -0
 986              		.cfi_startproc
 987              		@ args = 0, pretend = 0, frame = 0
 988              		@ frame_needed = 0, uses_anonymous_args = 0
 989 0000 38B5     		push	{r3, r4, r5, lr}
 990              	.LCFI7:
 991              		.cfi_def_cfa_offset 16
 992              		.cfi_offset 3, -16
 993              		.cfi_offset 4, -12
 994              		.cfi_offset 5, -8
 995              		.cfi_offset 14, -4
 329:Bsp/Src/nrf24_comm.c ****   if (!nrf24_status.initialized) {
 996              		.loc 1 329 3 view .LVU247
 997              		.loc 1 329 20 is_stmt 0 view .LVU248
 998 0002 134B     		ldr	r3, .L85
 999 0004 1C78     		ldrb	r4, [r3]	@ zero_extendqisi2
 1000              		.loc 1 329 6 view .LVU249
 1001 0006 0CB9     		cbnz	r4, .L84
 1002              	.L81:
 330:Bsp/Src/nrf24_comm.c ****     return false;
ARM GAS  C:\Users\l1234\AppData\Local\Temp\ccTmlPda.s 			page 25


 331:Bsp/Src/nrf24_comm.c ****   }
 332:Bsp/Src/nrf24_comm.c ****   
 333:Bsp/Src/nrf24_comm.c ****   // Attempt transmission
 334:Bsp/Src/nrf24_comm.c ****   uint8_t result = nrf24_transmit((uint8_t*)&tx_buffer, NRF24_PAYLOAD_SIZE);
 335:Bsp/Src/nrf24_comm.c ****   
 336:Bsp/Src/nrf24_comm.c ****   // Update status
 337:Bsp/Src/nrf24_comm.c ****   nrf24_status.last_tx_time = HAL_GetTick();
 338:Bsp/Src/nrf24_comm.c ****   
 339:Bsp/Src/nrf24_comm.c ****   if (result == 0) {
 340:Bsp/Src/nrf24_comm.c ****     // Success
 341:Bsp/Src/nrf24_comm.c ****     nrf24_status.tx_success = true;
 342:Bsp/Src/nrf24_comm.c ****     nrf24_status.tx_failed = false;
 343:Bsp/Src/nrf24_comm.c ****     nrf24_status.tx_count++;
 344:Bsp/Src/nrf24_comm.c ****     nrf24_status.communication_ok = true;
 345:Bsp/Src/nrf24_comm.c ****     status_feedback_pending = false;
 346:Bsp/Src/nrf24_comm.c ****     return true;
 347:Bsp/Src/nrf24_comm.c ****   } else {
 348:Bsp/Src/nrf24_comm.c ****     // Failed
 349:Bsp/Src/nrf24_comm.c ****     nrf24_status.tx_success = false;
 350:Bsp/Src/nrf24_comm.c ****     nrf24_status.tx_failed = true;
 351:Bsp/Src/nrf24_comm.c ****     nrf24_status.tx_error_count++;
 352:Bsp/Src/nrf24_comm.c ****     nrf24_status.communication_ok = false;
 353:Bsp/Src/nrf24_comm.c ****     status_feedback_pending = true;
 354:Bsp/Src/nrf24_comm.c ****     return false;
 355:Bsp/Src/nrf24_comm.c ****   }
 356:Bsp/Src/nrf24_comm.c **** }
 1003              		.loc 1 356 1 view .LVU250
 1004 0008 2046     		mov	r0, r4
 1005 000a 38BD     		pop	{r3, r4, r5, pc}
 1006              	.L84:
 334:Bsp/Src/nrf24_comm.c ****   
 1007              		.loc 1 334 3 is_stmt 1 view .LVU251
 334:Bsp/Src/nrf24_comm.c ****   
 1008              		.loc 1 334 20 is_stmt 0 view .LVU252
 1009 000c 0A21     		movs	r1, #10
 1010 000e 1148     		ldr	r0, .L85+4
 1011 0010 FFF7FEFF 		bl	nrf24_transmit
 1012              	.LVL110:
 1013 0014 0546     		mov	r5, r0
 1014              	.LVL111:
 337:Bsp/Src/nrf24_comm.c ****   
 1015              		.loc 1 337 3 is_stmt 1 view .LVU253
 337:Bsp/Src/nrf24_comm.c ****   
 1016              		.loc 1 337 31 is_stmt 0 view .LVU254
 1017 0016 FFF7FEFF 		bl	HAL_GetTick
 1018              	.LVL112:
 337:Bsp/Src/nrf24_comm.c ****   
 1019              		.loc 1 337 29 view .LVU255
 1020 001a 0D4B     		ldr	r3, .L85
 1021 001c D860     		str	r0, [r3, #12]
 339:Bsp/Src/nrf24_comm.c ****     // Success
 1022              		.loc 1 339 3 is_stmt 1 view .LVU256
 339:Bsp/Src/nrf24_comm.c ****     // Success
 1023              		.loc 1 339 6 is_stmt 0 view .LVU257
 1024 001e 55B9     		cbnz	r5, .L82
 341:Bsp/Src/nrf24_comm.c ****     nrf24_status.tx_failed = false;
 1025              		.loc 1 341 5 is_stmt 1 view .LVU258
ARM GAS  C:\Users\l1234\AppData\Local\Temp\ccTmlPda.s 			page 26


 341:Bsp/Src/nrf24_comm.c ****     nrf24_status.tx_failed = false;
 1026              		.loc 1 341 29 is_stmt 0 view .LVU259
 1027 0020 0120     		movs	r0, #1
 1028 0022 9870     		strb	r0, [r3, #2]
 342:Bsp/Src/nrf24_comm.c ****     nrf24_status.tx_count++;
 1029              		.loc 1 342 5 is_stmt 1 view .LVU260
 342:Bsp/Src/nrf24_comm.c ****     nrf24_status.tx_count++;
 1030              		.loc 1 342 28 is_stmt 0 view .LVU261
 1031 0024 0021     		movs	r1, #0
 1032 0026 D970     		strb	r1, [r3, #3]
 343:Bsp/Src/nrf24_comm.c ****     nrf24_status.communication_ok = true;
 1033              		.loc 1 343 5 is_stmt 1 view .LVU262
 343:Bsp/Src/nrf24_comm.c ****     nrf24_status.communication_ok = true;
 1034              		.loc 1 343 17 is_stmt 0 view .LVU263
 1035 0028 5A68     		ldr	r2, [r3, #4]
 343:Bsp/Src/nrf24_comm.c ****     nrf24_status.communication_ok = true;
 1036              		.loc 1 343 26 view .LVU264
 1037 002a 0244     		add	r2, r2, r0
 1038 002c 5A60     		str	r2, [r3, #4]
 344:Bsp/Src/nrf24_comm.c ****     status_feedback_pending = false;
 1039              		.loc 1 344 5 is_stmt 1 view .LVU265
 344:Bsp/Src/nrf24_comm.c ****     status_feedback_pending = false;
 1040              		.loc 1 344 35 is_stmt 0 view .LVU266
 1041 002e 5870     		strb	r0, [r3, #1]
 345:Bsp/Src/nrf24_comm.c ****     return true;
 1042              		.loc 1 345 5 is_stmt 1 view .LVU267
 345:Bsp/Src/nrf24_comm.c ****     return true;
 1043              		.loc 1 345 29 is_stmt 0 view .LVU268
 1044 0030 094B     		ldr	r3, .L85+8
 1045 0032 1970     		strb	r1, [r3]
 346:Bsp/Src/nrf24_comm.c ****   } else {
 1046              		.loc 1 346 5 is_stmt 1 view .LVU269
 346:Bsp/Src/nrf24_comm.c ****   } else {
 1047              		.loc 1 346 12 is_stmt 0 view .LVU270
 1048 0034 E8E7     		b	.L81
 1049              	.L82:
 349:Bsp/Src/nrf24_comm.c ****     nrf24_status.tx_failed = true;
 1050              		.loc 1 349 5 is_stmt 1 view .LVU271
 349:Bsp/Src/nrf24_comm.c ****     nrf24_status.tx_failed = true;
 1051              		.loc 1 349 29 is_stmt 0 view .LVU272
 1052 0036 064B     		ldr	r3, .L85
 1053 0038 0024     		movs	r4, #0
 1054 003a 9C70     		strb	r4, [r3, #2]
 350:Bsp/Src/nrf24_comm.c ****     nrf24_status.tx_error_count++;
 1055              		.loc 1 350 5 is_stmt 1 view .LVU273
 350:Bsp/Src/nrf24_comm.c ****     nrf24_status.tx_error_count++;
 1056              		.loc 1 350 28 is_stmt 0 view .LVU274
 1057 003c 0121     		movs	r1, #1
 1058 003e D970     		strb	r1, [r3, #3]
 351:Bsp/Src/nrf24_comm.c ****     nrf24_status.communication_ok = false;
 1059              		.loc 1 351 5 is_stmt 1 view .LVU275
 351:Bsp/Src/nrf24_comm.c ****     nrf24_status.communication_ok = false;
 1060              		.loc 1 351 17 is_stmt 0 view .LVU276
 1061 0040 9A68     		ldr	r2, [r3, #8]
 351:Bsp/Src/nrf24_comm.c ****     nrf24_status.communication_ok = false;
 1062              		.loc 1 351 32 view .LVU277
 1063 0042 0A44     		add	r2, r2, r1
ARM GAS  C:\Users\l1234\AppData\Local\Temp\ccTmlPda.s 			page 27


 1064 0044 9A60     		str	r2, [r3, #8]
 352:Bsp/Src/nrf24_comm.c ****     status_feedback_pending = true;
 1065              		.loc 1 352 5 is_stmt 1 view .LVU278
 352:Bsp/Src/nrf24_comm.c ****     status_feedback_pending = true;
 1066              		.loc 1 352 35 is_stmt 0 view .LVU279
 1067 0046 5C70     		strb	r4, [r3, #1]
 353:Bsp/Src/nrf24_comm.c ****     return false;
 1068              		.loc 1 353 5 is_stmt 1 view .LVU280
 353:Bsp/Src/nrf24_comm.c ****     return false;
 1069              		.loc 1 353 29 is_stmt 0 view .LVU281
 1070 0048 034B     		ldr	r3, .L85+8
 1071 004a 1970     		strb	r1, [r3]
 354:Bsp/Src/nrf24_comm.c ****   }
 1072              		.loc 1 354 5 is_stmt 1 view .LVU282
 354:Bsp/Src/nrf24_comm.c ****   }
 1073              		.loc 1 354 12 is_stmt 0 view .LVU283
 1074 004c DCE7     		b	.L81
 1075              	.L86:
 1076 004e 00BF     		.align	2
 1077              	.L85:
 1078 0050 00000000 		.word	nrf24_status
 1079 0054 00000000 		.word	tx_buffer
 1080 0058 00000000 		.word	status_feedback_pending
 1081              		.cfi_endproc
 1082              	.LFE75:
 1084              		.section	.text.NRF24_Comm_GetStatus,"ax",%progbits
 1085              		.align	1
 1086              		.global	NRF24_Comm_GetStatus
 1087              		.syntax unified
 1088              		.thumb
 1089              		.thumb_func
 1091              	NRF24_Comm_GetStatus:
 1092              	.LVL113:
 1093              	.LFB76:
 357:Bsp/Src/nrf24_comm.c **** 
 358:Bsp/Src/nrf24_comm.c **** /**
 359:Bsp/Src/nrf24_comm.c ****   * @brief  Get current communication status
 360:Bsp/Src/nrf24_comm.c ****   * @retval NRF24_Status_t: Current status
 361:Bsp/Src/nrf24_comm.c ****   */
 362:Bsp/Src/nrf24_comm.c **** NRF24_Status_t NRF24_Comm_GetStatus(void)
 363:Bsp/Src/nrf24_comm.c **** {
 1094              		.loc 1 363 1 is_stmt 1 view -0
 1095              		.cfi_startproc
 1096              		@ args = 0, pretend = 0, frame = 0
 1097              		@ frame_needed = 0, uses_anonymous_args = 0
 1098              		.loc 1 363 1 is_stmt 0 view .LVU285
 1099 0000 10B5     		push	{r4, lr}
 1100              	.LCFI8:
 1101              		.cfi_def_cfa_offset 8
 1102              		.cfi_offset 4, -8
 1103              		.cfi_offset 14, -4
 1104 0002 8646     		mov	lr, r0
 364:Bsp/Src/nrf24_comm.c ****   return nrf24_status;
 1105              		.loc 1 364 3 is_stmt 1 view .LVU286
 1106              		.loc 1 364 10 is_stmt 0 view .LVU287
 1107 0004 8446     		mov	ip, r0
 1108 0006 054C     		ldr	r4, .L89
ARM GAS  C:\Users\l1234\AppData\Local\Temp\ccTmlPda.s 			page 28


 1109 0008 0FCC     		ldmia	r4!, {r0, r1, r2, r3}
 1110              	.LVL114:
 1111              		.loc 1 364 10 view .LVU288
 1112 000a ACE80F00 		stmia	ip!, {r0, r1, r2, r3}
 1113              	.LVL115:
 1114              		.loc 1 364 10 view .LVU289
 1115 000e 94E80300 		ldm	r4, {r0, r1}
 1116 0012 8CE80300 		stm	ip, {r0, r1}
 365:Bsp/Src/nrf24_comm.c **** }
 1117              		.loc 1 365 1 view .LVU290
 1118 0016 7046     		mov	r0, lr
 1119 0018 10BD     		pop	{r4, pc}
 1120              	.L90:
 1121 001a 00BF     		.align	2
 1122              	.L89:
 1123 001c 00000000 		.word	nrf24_status
 1124              		.cfi_endproc
 1125              	.LFE76:
 1127              		.section	.text.NRF24_Comm_GetTxBuffer,"ax",%progbits
 1128              		.align	1
 1129              		.global	NRF24_Comm_GetTxBuffer
 1130              		.syntax unified
 1131              		.thumb
 1132              		.thumb_func
 1134              	NRF24_Comm_GetTxBuffer:
 1135              	.LVL116:
 1136              	.LFB77:
 366:Bsp/Src/nrf24_comm.c **** 
 367:Bsp/Src/nrf24_comm.c **** /**
 368:Bsp/Src/nrf24_comm.c ****   * @brief  Get current TX buffer for monitoring
 369:Bsp/Src/nrf24_comm.c ****   * @retval NRF24_TxBuffer_t: Current TX buffer
 370:Bsp/Src/nrf24_comm.c ****   */
 371:Bsp/Src/nrf24_comm.c **** NRF24_TxBuffer_t NRF24_Comm_GetTxBuffer(void)
 372:Bsp/Src/nrf24_comm.c **** {
 1137              		.loc 1 372 1 is_stmt 1 view -0
 1138              		.cfi_startproc
 1139              		@ args = 0, pretend = 0, frame = 0
 1140              		@ frame_needed = 0, uses_anonymous_args = 0
 1141              		@ link register save eliminated.
 1142              		.loc 1 372 1 is_stmt 0 view .LVU292
 1143 0000 0346     		mov	r3, r0
 373:Bsp/Src/nrf24_comm.c ****   return tx_buffer;
 1144              		.loc 1 373 3 is_stmt 1 view .LVU293
 1145              		.loc 1 373 10 is_stmt 0 view .LVU294
 1146 0002 044A     		ldr	r2, .L92
 1147 0004 03CA     		ldmia	r2!, {r0, r1}
 1148              	.LVL117:
 1149              		.loc 1 373 10 view .LVU295
 1150 0006 1860     		str	r0, [r3]	@ unaligned
 1151 0008 5960     		str	r1, [r3, #4]	@ unaligned
 1152 000a 1288     		ldrh	r2, [r2]	@ unaligned
 1153 000c 1A81     		strh	r2, [r3, #8]	@ unaligned
 374:Bsp/Src/nrf24_comm.c **** }
 1154              		.loc 1 374 1 view .LVU296
 1155 000e 1846     		mov	r0, r3
 1156 0010 7047     		bx	lr
 1157              	.L93:
ARM GAS  C:\Users\l1234\AppData\Local\Temp\ccTmlPda.s 			page 29


 1158 0012 00BF     		.align	2
 1159              	.L92:
 1160 0014 00000000 		.word	tx_buffer
 1161              		.cfi_endproc
 1162              	.LFE77:
 1164              		.section	.text.NRF24_Comm_StatusFeedback,"ax",%progbits
 1165              		.align	1
 1166              		.global	NRF24_Comm_StatusFeedback
 1167              		.syntax unified
 1168              		.thumb
 1169              		.thumb_func
 1171              	NRF24_Comm_StatusFeedback:
 1172              	.LFB78:
 375:Bsp/Src/nrf24_comm.c **** 
 376:Bsp/Src/nrf24_comm.c **** /**
 377:Bsp/Src/nrf24_comm.c ****   * @brief  Provide status feedback via buzzer
 378:Bsp/Src/nrf24_comm.c ****   * @retval None
 379:Bsp/Src/nrf24_comm.c ****   */
 380:Bsp/Src/nrf24_comm.c **** void NRF24_Comm_StatusFeedback(void)
 381:Bsp/Src/nrf24_comm.c **** {
 1173              		.loc 1 381 1 is_stmt 1 view -0
 1174              		.cfi_startproc
 1175              		@ args = 0, pretend = 0, frame = 0
 1176              		@ frame_needed = 0, uses_anonymous_args = 0
 1177 0000 38B5     		push	{r3, r4, r5, lr}
 1178              	.LCFI9:
 1179              		.cfi_def_cfa_offset 16
 1180              		.cfi_offset 3, -16
 1181              		.cfi_offset 4, -12
 1182              		.cfi_offset 5, -8
 1183              		.cfi_offset 14, -4
 382:Bsp/Src/nrf24_comm.c ****   uint32_t current_time = HAL_GetTick();
 1184              		.loc 1 382 3 view .LVU298
 1185              		.loc 1 382 27 is_stmt 0 view .LVU299
 1186 0002 FFF7FEFF 		bl	HAL_GetTick
 1187              	.LVL118:
 383:Bsp/Src/nrf24_comm.c ****   
 384:Bsp/Src/nrf24_comm.c ****   // Check if it's time for periodic feedback
 385:Bsp/Src/nrf24_comm.c ****   if (status_feedback_pending && 
 1188              		.loc 1 385 3 is_stmt 1 view .LVU300
 1189              		.loc 1 385 7 is_stmt 0 view .LVU301
 1190 0006 114B     		ldr	r3, .L100
 1191 0008 1B78     		ldrb	r3, [r3]	@ zero_extendqisi2
 1192              		.loc 1 385 6 view .LVU302
 1193 000a EBB1     		cbz	r3, .L94
 1194 000c 0446     		mov	r4, r0
 386:Bsp/Src/nrf24_comm.c ****       (current_time - last_feedback_time) > STATUS_FEEDBACK_INTERVAL) {
 1195              		.loc 1 386 21 discriminator 1 view .LVU303
 1196 000e 104B     		ldr	r3, .L100+4
 1197 0010 1B68     		ldr	r3, [r3]
 1198 0012 C31A     		subs	r3, r0, r3
 385:Bsp/Src/nrf24_comm.c ****       (current_time - last_feedback_time) > STATUS_FEEDBACK_INTERVAL) {
 1199              		.loc 1 385 31 discriminator 1 view .LVU304
 1200 0014 41F28832 		movw	r2, #5000
 1201 0018 9342     		cmp	r3, r2
 1202 001a 15D9     		bls	.L94
 387:Bsp/Src/nrf24_comm.c ****     
ARM GAS  C:\Users\l1234\AppData\Local\Temp\ccTmlPda.s 			page 30


 388:Bsp/Src/nrf24_comm.c ****     if (!nrf24_status.communication_ok) {
 1203              		.loc 1 388 5 is_stmt 1 view .LVU305
 1204              		.loc 1 388 22 is_stmt 0 view .LVU306
 1205 001c 0D4B     		ldr	r3, .L100+8
 1206 001e 5B78     		ldrb	r3, [r3, #1]	@ zero_extendqisi2
 1207              		.loc 1 388 8 view .LVU307
 1208 0020 53B9     		cbnz	r3, .L96
 1209              	.LBB3:
 389:Bsp/Src/nrf24_comm.c ****       // Three short beeps = communication problem
 390:Bsp/Src/nrf24_comm.c ****       for(int i = 0; i < 3; i++) {
 1210              		.loc 1 390 15 view .LVU308
 1211 0022 0025     		movs	r5, #0
 1212              	.LVL119:
 1213              	.L97:
 1214              		.loc 1 390 24 is_stmt 1 discriminator 1 view .LVU309
 1215 0024 022D     		cmp	r5, #2
 1216 0026 07DC     		bgt	.L96
 391:Bsp/Src/nrf24_comm.c ****         NRF24_Comm_BuzzerBeep(50);
 1217              		.loc 1 391 9 discriminator 3 view .LVU310
 1218 0028 3220     		movs	r0, #50
 1219 002a FFF7FEFF 		bl	NRF24_Comm_BuzzerBeep
 1220              	.LVL120:
 392:Bsp/Src/nrf24_comm.c ****         HAL_Delay(100);
 1221              		.loc 1 392 9 discriminator 3 view .LVU311
 1222 002e 6420     		movs	r0, #100
 1223 0030 FFF7FEFF 		bl	HAL_Delay
 1224              	.LVL121:
 390:Bsp/Src/nrf24_comm.c ****         NRF24_Comm_BuzzerBeep(50);
 1225              		.loc 1 390 30 discriminator 3 view .LVU312
 1226 0034 0135     		adds	r5, r5, #1
 1227              	.LVL122:
 390:Bsp/Src/nrf24_comm.c ****         NRF24_Comm_BuzzerBeep(50);
 1228              		.loc 1 390 30 is_stmt 0 discriminator 3 view .LVU313
 1229 0036 F5E7     		b	.L97
 1230              	.LVL123:
 1231              	.L96:
 390:Bsp/Src/nrf24_comm.c ****         NRF24_Comm_BuzzerBeep(50);
 1232              		.loc 1 390 30 discriminator 3 view .LVU314
 1233              	.LBE3:
 393:Bsp/Src/nrf24_comm.c ****       }
 394:Bsp/Src/nrf24_comm.c ****     }
 395:Bsp/Src/nrf24_comm.c ****     
 396:Bsp/Src/nrf24_comm.c ****     last_feedback_time = current_time;
 1234              		.loc 1 396 5 is_stmt 1 view .LVU315
 1235              		.loc 1 396 24 is_stmt 0 view .LVU316
 1236 0038 054B     		ldr	r3, .L100+4
 1237 003a 1C60     		str	r4, [r3]
 397:Bsp/Src/nrf24_comm.c ****     
 398:Bsp/Src/nrf24_comm.c ****     // If communication is working, disable pending feedback
 399:Bsp/Src/nrf24_comm.c ****     if (nrf24_status.communication_ok) {
 1238              		.loc 1 399 5 is_stmt 1 view .LVU317
 1239              		.loc 1 399 21 is_stmt 0 view .LVU318
 1240 003c 054B     		ldr	r3, .L100+8
 1241 003e 5B78     		ldrb	r3, [r3, #1]	@ zero_extendqisi2
 1242              		.loc 1 399 8 view .LVU319
 1243 0040 13B1     		cbz	r3, .L94
 400:Bsp/Src/nrf24_comm.c ****       status_feedback_pending = false;
ARM GAS  C:\Users\l1234\AppData\Local\Temp\ccTmlPda.s 			page 31


 1244              		.loc 1 400 7 is_stmt 1 view .LVU320
 1245              		.loc 1 400 31 is_stmt 0 view .LVU321
 1246 0042 024B     		ldr	r3, .L100
 1247 0044 0022     		movs	r2, #0
 1248 0046 1A70     		strb	r2, [r3]
 1249              	.LVL124:
 1250              	.L94:
 401:Bsp/Src/nrf24_comm.c ****     }
 402:Bsp/Src/nrf24_comm.c ****   }
 403:Bsp/Src/nrf24_comm.c **** }
 1251              		.loc 1 403 1 view .LVU322
 1252 0048 38BD     		pop	{r3, r4, r5, pc}
 1253              	.L101:
 1254 004a 00BF     		.align	2
 1255              	.L100:
 1256 004c 00000000 		.word	status_feedback_pending
 1257 0050 00000000 		.word	last_feedback_time
 1258 0054 00000000 		.word	nrf24_status
 1259              		.cfi_endproc
 1260              	.LFE78:
 1262              		.section	.text.NRF24_Comm_IRQ_Handler,"ax",%progbits
 1263              		.align	1
 1264              		.global	NRF24_Comm_IRQ_Handler
 1265              		.syntax unified
 1266              		.thumb
 1267              		.thumb_func
 1269              	NRF24_Comm_IRQ_Handler:
 1270              	.LFB79:
 404:Bsp/Src/nrf24_comm.c **** 
 405:Bsp/Src/nrf24_comm.c **** /**
 406:Bsp/Src/nrf24_comm.c ****   * @brief  IRQ interrupt handler
 407:Bsp/Src/nrf24_comm.c ****   * @retval None
 408:Bsp/Src/nrf24_comm.c ****   */
 409:Bsp/Src/nrf24_comm.c **** void NRF24_Comm_IRQ_Handler(void)
 410:Bsp/Src/nrf24_comm.c **** {
 1271              		.loc 1 410 1 is_stmt 1 view -0
 1272              		.cfi_startproc
 1273              		@ args = 0, pretend = 0, frame = 0
 1274              		@ frame_needed = 0, uses_anonymous_args = 0
 1275 0000 10B5     		push	{r4, lr}
 1276              	.LCFI10:
 1277              		.cfi_def_cfa_offset 8
 1278              		.cfi_offset 4, -8
 1279              		.cfi_offset 14, -4
 411:Bsp/Src/nrf24_comm.c ****   // Handle NRF24 interrupt
 412:Bsp/Src/nrf24_comm.c ****   uint8_t status = nrf24_r_status();
 1280              		.loc 1 412 3 view .LVU324
 1281              		.loc 1 412 20 is_stmt 0 view .LVU325
 1282 0002 FFF7FEFF 		bl	nrf24_r_status
 1283              	.LVL125:
 1284 0006 0446     		mov	r4, r0
 1285              	.LVL126:
 413:Bsp/Src/nrf24_comm.c ****   
 414:Bsp/Src/nrf24_comm.c ****   // Clear interrupt flags
 415:Bsp/Src/nrf24_comm.c ****   if (status & (1 << TX_DS)) {
 1286              		.loc 1 415 3 is_stmt 1 view .LVU326
 1287              		.loc 1 415 6 is_stmt 0 view .LVU327
ARM GAS  C:\Users\l1234\AppData\Local\Temp\ccTmlPda.s 			page 32


 1288 0008 10F0200F 		tst	r0, #32
 1289 000c 06D1     		bne	.L107
 1290              	.LVL127:
 1291              	.L103:
 416:Bsp/Src/nrf24_comm.c ****     nrf24_clear_tx_ds();
 417:Bsp/Src/nrf24_comm.c ****   }
 418:Bsp/Src/nrf24_comm.c ****   
 419:Bsp/Src/nrf24_comm.c ****   if (status & (1 << MAX_RT)) {
 1292              		.loc 1 419 3 is_stmt 1 view .LVU328
 1293              		.loc 1 419 6 is_stmt 0 view .LVU329
 1294 000e 14F0100F 		tst	r4, #16
 1295 0012 06D1     		bne	.L108
 1296              	.L104:
 420:Bsp/Src/nrf24_comm.c ****     nrf24_clear_max_rt();
 421:Bsp/Src/nrf24_comm.c ****     nrf24_flush_tx();
 422:Bsp/Src/nrf24_comm.c ****   }
 423:Bsp/Src/nrf24_comm.c ****   
 424:Bsp/Src/nrf24_comm.c ****   if (status & (1 << RX_DR)) {
 1297              		.loc 1 424 3 is_stmt 1 view .LVU330
 1298              		.loc 1 424 6 is_stmt 0 view .LVU331
 1299 0014 14F0400F 		tst	r4, #64
 1300 0018 08D1     		bne	.L109
 1301              	.L102:
 425:Bsp/Src/nrf24_comm.c ****     nrf24_clear_rx_dr();
 426:Bsp/Src/nrf24_comm.c ****   }
 427:Bsp/Src/nrf24_comm.c **** }
 1302              		.loc 1 427 1 view .LVU332
 1303 001a 10BD     		pop	{r4, pc}
 1304              	.LVL128:
 1305              	.L107:
 416:Bsp/Src/nrf24_comm.c ****   }
 1306              		.loc 1 416 5 is_stmt 1 view .LVU333
 1307 001c FFF7FEFF 		bl	nrf24_clear_tx_ds
 1308              	.LVL129:
 416:Bsp/Src/nrf24_comm.c ****   }
 1309              		.loc 1 416 5 is_stmt 0 view .LVU334
 1310 0020 F5E7     		b	.L103
 1311              	.L108:
 420:Bsp/Src/nrf24_comm.c ****     nrf24_clear_max_rt();
 1312              		.loc 1 420 5 is_stmt 1 view .LVU335
 1313 0022 FFF7FEFF 		bl	nrf24_clear_max_rt
 1314              	.LVL130:
 421:Bsp/Src/nrf24_comm.c ****   }
 1315              		.loc 1 421 5 view .LVU336
 1316 0026 FFF7FEFF 		bl	nrf24_flush_tx
 1317              	.LVL131:
 1318 002a F3E7     		b	.L104
 1319              	.L109:
 425:Bsp/Src/nrf24_comm.c ****     nrf24_clear_rx_dr();
 1320              		.loc 1 425 5 view .LVU337
 1321 002c FFF7FEFF 		bl	nrf24_clear_rx_dr
 1322              	.LVL132:
 1323              		.loc 1 427 1 is_stmt 0 view .LVU338
 1324 0030 F3E7     		b	.L102
 1325              		.cfi_endproc
 1326              	.LFE79:
 1328              		.section	.text.NRF24_Comm_GetPhysicalVelocity,"ax",%progbits
ARM GAS  C:\Users\l1234\AppData\Local\Temp\ccTmlPda.s 			page 33


 1329              		.align	1
 1330              		.global	NRF24_Comm_GetPhysicalVelocity
 1331              		.syntax unified
 1332              		.thumb
 1333              		.thumb_func
 1335              	NRF24_Comm_GetPhysicalVelocity:
 1336              	.LVL133:
 1337              	.LFB80:
 428:Bsp/Src/nrf24_comm.c **** 
 429:Bsp/Src/nrf24_comm.c **** PhysicalVelocity_t NRF24_Comm_GetPhysicalVelocity(void)
 430:Bsp/Src/nrf24_comm.c **** {
 1338              		.loc 1 430 1 is_stmt 1 view -0
 1339              		.cfi_startproc
 1340              		@ args = 0, pretend = 0, frame = 0
 1341              		@ frame_needed = 0, uses_anonymous_args = 0
 1342              		@ link register save eliminated.
 1343              		.loc 1 430 1 is_stmt 0 view .LVU340
 1344 0000 0346     		mov	r3, r0
 431:Bsp/Src/nrf24_comm.c ****     return physical_remapped_adc;
 1345              		.loc 1 431 5 is_stmt 1 view .LVU341
 1346              		.loc 1 431 12 is_stmt 0 view .LVU342
 1347 0002 034A     		ldr	r2, .L111
 1348 0004 07CA     		ldm	r2, {r0, r1, r2}
 1349              	.LVL134:
 1350              		.loc 1 431 12 view .LVU343
 1351 0006 83E80700 		stm	r3, {r0, r1, r2}
 432:Bsp/Src/nrf24_comm.c **** } ...
 1352              		.loc 1 432 1 view .LVU344
 1353 000a 1846     		mov	r0, r3
 1354 000c 7047     		bx	lr
 1355              	.L112:
 1356 000e 00BF     		.align	2
 1357              	.L111:
 1358 0010 00000000 		.word	physical_remapped_adc
 1359              		.cfi_endproc
 1360              	.LFE80:
 1362              		.global	physical_remapped_adc
 1363              		.section	.bss.physical_remapped_adc,"aw",%nobits
 1364              		.align	2
 1367              	physical_remapped_adc:
 1368 0000 00000000 		.space	12
 1368      00000000 
 1368      00000000 
 1369              		.global	MAX_ROBOT_NUMBER
 1370              		.section	.data.MAX_ROBOT_NUMBER,"aw"
 1373              	MAX_ROBOT_NUMBER:
 1374 0000 10       		.byte	16
 1375              		.section	.bss.current_robot_id,"aw",%nobits
 1378              	current_robot_id:
 1379 0000 00       		.space	1
 1380              		.section	.bss.status_feedback_pending,"aw",%nobits
 1383              	status_feedback_pending:
 1384 0000 00       		.space	1
 1385              		.section	.bss.last_feedback_time,"aw",%nobits
 1386              		.align	2
 1389              	last_feedback_time:
 1390 0000 00000000 		.space	4
ARM GAS  C:\Users\l1234\AppData\Local\Temp\ccTmlPda.s 			page 34


 1391              		.section	.data.tx_addr,"aw"
 1392              		.align	2
 1395              	tx_addr:
 1396 0000 314E6F64 		.ascii	"1Node"
 1396      65
 1397              		.global	tx_buffer
 1398              		.section	.bss.tx_buffer,"aw",%nobits
 1399              		.align	2
 1402              	tx_buffer:
 1403 0000 00000000 		.space	10
 1403      00000000 
 1403      0000
 1404              		.global	nrf24_status
 1405              		.section	.bss.nrf24_status,"aw",%nobits
 1406              		.align	2
 1409              	nrf24_status:
 1410 0000 00000000 		.space	24
 1410      00000000 
 1410      00000000 
 1410      00000000 
 1410      00000000 
 1411              		.text
 1412              	.Letext0:
 1413              		.file 2 "c:\\msys64\\mingw64\\arm-none-eabi\\include\\machine\\_default_types.h"
 1414              		.file 3 "c:\\msys64\\mingw64\\arm-none-eabi\\include\\sys\\_stdint.h"
 1415              		.file 4 "Drivers/CMSIS/Device/ST/STM32F1xx/Include/stm32f103xb.h"
 1416              		.file 5 "c:\\msys64\\mingw64\\lib\\gcc\\arm-none-eabi\\12.2.0\\include\\stddef.h"
 1417              		.file 6 "Drivers/STM32F1xx_HAL_Driver/Inc/stm32f1xx_hal_gpio.h"
 1418              		.file 7 "Bsp/Inc/NRF24.h"
 1419              		.file 8 "Bsp/Inc/nrf24_comm.h"
 1420              		.file 9 "Drivers/STM32F1xx_HAL_Driver/Inc/stm32f1xx_hal.h"
 1421              		.file 10 "c:\\msys64\\mingw64\\arm-none-eabi\\include\\string.h"
ARM GAS  C:\Users\l1234\AppData\Local\Temp\ccTmlPda.s 			page 35

